
kernel/kernel:     file format elf64-littleriscv


Disassembly of section .text:

0000000080000000 <_entry>:
    80000000:	0000b117          	auipc	sp,0xb
    80000004:	34013103          	ld	sp,832(sp) # 8000b340 <_GLOBAL_OFFSET_TABLE_+0x8>
    80000008:	6505                	lui	a0,0x1
    8000000a:	f14025f3          	csrr	a1,mhartid
    8000000e:	0585                	addi	a1,a1,1
    80000010:	02b50533          	mul	a0,a0,a1
    80000014:	912a                	add	sp,sp,a0
    80000016:	399050ef          	jal	80005bae <start>

000000008000001a <spin>:
    8000001a:	a001                	j	8000001a <spin>

000000008000001c <change_and_get_ref>:
  initlock(&kmem.lock, "kmem");
  initlock(&ref.lock, "ref");
  freerange(end, (void *)PHYSTOP);
}

int change_and_get_ref(uint64 ind, int value) {
    8000001c:	1101                	addi	sp,sp,-32
    8000001e:	ec06                	sd	ra,24(sp)
    80000020:	e822                	sd	s0,16(sp)
    80000022:	e426                	sd	s1,8(sp)
    80000024:	e04a                	sd	s2,0(sp)
    80000026:	1000                	addi	s0,sp,32
    80000028:	84aa                	mv	s1,a0
    8000002a:	892e                	mv	s2,a1
  acquire(&ref.lock);
    8000002c:	0000b517          	auipc	a0,0xb
    80000030:	38450513          	addi	a0,a0,900 # 8000b3b0 <ref>
    80000034:	00006097          	auipc	ra,0x6
    80000038:	5c8080e7          	jalr	1480(ra) # 800065fc <acquire>
  ref.ref_count[ind] += value;
    8000003c:	0000b517          	auipc	a0,0xb
    80000040:	37450513          	addi	a0,a0,884 # 8000b3b0 <ref>
    80000044:	00448793          	addi	a5,s1,4
    80000048:	078a                	slli	a5,a5,0x2
    8000004a:	97aa                	add	a5,a5,a0
    8000004c:	4798                	lw	a4,8(a5)
    8000004e:	012705bb          	addw	a1,a4,s2
    80000052:	0005849b          	sext.w	s1,a1
    80000056:	c78c                	sw	a1,8(a5)
  int res = ref.ref_count[ind];
  release(&ref.lock);
    80000058:	00006097          	auipc	ra,0x6
    8000005c:	658080e7          	jalr	1624(ra) # 800066b0 <release>
  return res;
}
    80000060:	8526                	mv	a0,s1
    80000062:	60e2                	ld	ra,24(sp)
    80000064:	6442                	ld	s0,16(sp)
    80000066:	64a2                	ld	s1,8(sp)
    80000068:	6902                	ld	s2,0(sp)
    8000006a:	6105                	addi	sp,sp,32
    8000006c:	8082                	ret

000000008000006e <kfree>:

// Free the page of physical memory pointed at by pa,
// which normally should have been returned by a
// call to kalloc().  (The exception is when
// initializing the allocator; see kinit above.)
void kfree(void *pa) {
    8000006e:	1101                	addi	sp,sp,-32
    80000070:	ec06                	sd	ra,24(sp)
    80000072:	e822                	sd	s0,16(sp)
    80000074:	e426                	sd	s1,8(sp)
    80000076:	1000                	addi	s0,sp,32
  struct run *r;

  if (((uint64)pa % PGSIZE) != 0 || (char *)pa < end || (uint64)pa >= PHYSTOP)
    80000078:	03451793          	slli	a5,a0,0x34
    8000007c:	ef95                	bnez	a5,800000b8 <kfree+0x4a>
    8000007e:	84aa                	mv	s1,a0
    80000080:	00044797          	auipc	a5,0x44
    80000084:	7a078793          	addi	a5,a5,1952 # 80044820 <end>
    80000088:	02f56863          	bltu	a0,a5,800000b8 <kfree+0x4a>
    8000008c:	47c5                	li	a5,17
    8000008e:	07ee                	slli	a5,a5,0x1b
    80000090:	02f57463          	bgeu	a0,a5,800000b8 <kfree+0x4a>
    panic("kfree");

  if (change_and_get_ref(P_IND((uint64)pa), -1) > 0) {
    80000094:	757d                	lui	a0,0xfffff
    80000096:	8d65                	and	a0,a0,s1
    80000098:	800007b7          	lui	a5,0x80000
    8000009c:	953e                	add	a0,a0,a5
    8000009e:	55fd                	li	a1,-1
    800000a0:	8131                	srli	a0,a0,0xc
    800000a2:	00000097          	auipc	ra,0x0
    800000a6:	f7a080e7          	jalr	-134(ra) # 8000001c <change_and_get_ref>
    800000aa:	02a05063          	blez	a0,800000ca <kfree+0x5c>

  acquire(&kmem.lock);
  r->next = kmem.freelist;
  kmem.freelist = r;
  release(&kmem.lock);
}
    800000ae:	60e2                	ld	ra,24(sp)
    800000b0:	6442                	ld	s0,16(sp)
    800000b2:	64a2                	ld	s1,8(sp)
    800000b4:	6105                	addi	sp,sp,32
    800000b6:	8082                	ret
    800000b8:	e04a                	sd	s2,0(sp)
    panic("kfree");
    800000ba:	00008517          	auipc	a0,0x8
    800000be:	f4650513          	addi	a0,a0,-186 # 80008000 <etext>
    800000c2:	00006097          	auipc	ra,0x6
    800000c6:	fc0080e7          	jalr	-64(ra) # 80006082 <panic>
    800000ca:	e04a                	sd	s2,0(sp)
  memset(pa, 1, PGSIZE);
    800000cc:	6605                	lui	a2,0x1
    800000ce:	4585                	li	a1,1
    800000d0:	8526                	mv	a0,s1
    800000d2:	00000097          	auipc	ra,0x0
    800000d6:	14c080e7          	jalr	332(ra) # 8000021e <memset>
  acquire(&kmem.lock);
    800000da:	0000b917          	auipc	s2,0xb
    800000de:	2b690913          	addi	s2,s2,694 # 8000b390 <kmem>
    800000e2:	854a                	mv	a0,s2
    800000e4:	00006097          	auipc	ra,0x6
    800000e8:	518080e7          	jalr	1304(ra) # 800065fc <acquire>
  r->next = kmem.freelist;
    800000ec:	01893783          	ld	a5,24(s2)
    800000f0:	e09c                	sd	a5,0(s1)
  kmem.freelist = r;
    800000f2:	00993c23          	sd	s1,24(s2)
  release(&kmem.lock);
    800000f6:	854a                	mv	a0,s2
    800000f8:	00006097          	auipc	ra,0x6
    800000fc:	5b8080e7          	jalr	1464(ra) # 800066b0 <release>
    80000100:	6902                	ld	s2,0(sp)
    80000102:	b775                	j	800000ae <kfree+0x40>

0000000080000104 <freerange>:
void freerange(void *pa_start, void *pa_end) {
    80000104:	7179                	addi	sp,sp,-48
    80000106:	f406                	sd	ra,40(sp)
    80000108:	f022                	sd	s0,32(sp)
    8000010a:	ec26                	sd	s1,24(sp)
    8000010c:	1800                	addi	s0,sp,48
  p = (char *)PGROUNDUP((uint64)pa_start);
    8000010e:	6785                	lui	a5,0x1
    80000110:	fff78713          	addi	a4,a5,-1 # fff <_entry-0x7ffff001>
    80000114:	00e504b3          	add	s1,a0,a4
    80000118:	777d                	lui	a4,0xfffff
    8000011a:	8cf9                	and	s1,s1,a4
  for (; p + PGSIZE <= (char *)pa_end; p += PGSIZE) kfree(p);
    8000011c:	94be                	add	s1,s1,a5
    8000011e:	0295e463          	bltu	a1,s1,80000146 <freerange+0x42>
    80000122:	e84a                	sd	s2,16(sp)
    80000124:	e44e                	sd	s3,8(sp)
    80000126:	e052                	sd	s4,0(sp)
    80000128:	892e                	mv	s2,a1
    8000012a:	7a7d                	lui	s4,0xfffff
    8000012c:	6985                	lui	s3,0x1
    8000012e:	01448533          	add	a0,s1,s4
    80000132:	00000097          	auipc	ra,0x0
    80000136:	f3c080e7          	jalr	-196(ra) # 8000006e <kfree>
    8000013a:	94ce                	add	s1,s1,s3
    8000013c:	fe9979e3          	bgeu	s2,s1,8000012e <freerange+0x2a>
    80000140:	6942                	ld	s2,16(sp)
    80000142:	69a2                	ld	s3,8(sp)
    80000144:	6a02                	ld	s4,0(sp)
}
    80000146:	70a2                	ld	ra,40(sp)
    80000148:	7402                	ld	s0,32(sp)
    8000014a:	64e2                	ld	s1,24(sp)
    8000014c:	6145                	addi	sp,sp,48
    8000014e:	8082                	ret

0000000080000150 <kinit>:
void kinit() {
    80000150:	1141                	addi	sp,sp,-16
    80000152:	e406                	sd	ra,8(sp)
    80000154:	e022                	sd	s0,0(sp)
    80000156:	0800                	addi	s0,sp,16
  initlock(&kmem.lock, "kmem");
    80000158:	00008597          	auipc	a1,0x8
    8000015c:	eb858593          	addi	a1,a1,-328 # 80008010 <etext+0x10>
    80000160:	0000b517          	auipc	a0,0xb
    80000164:	23050513          	addi	a0,a0,560 # 8000b390 <kmem>
    80000168:	00006097          	auipc	ra,0x6
    8000016c:	404080e7          	jalr	1028(ra) # 8000656c <initlock>
  initlock(&ref.lock, "ref");
    80000170:	00008597          	auipc	a1,0x8
    80000174:	ea858593          	addi	a1,a1,-344 # 80008018 <etext+0x18>
    80000178:	0000b517          	auipc	a0,0xb
    8000017c:	23850513          	addi	a0,a0,568 # 8000b3b0 <ref>
    80000180:	00006097          	auipc	ra,0x6
    80000184:	3ec080e7          	jalr	1004(ra) # 8000656c <initlock>
  freerange(end, (void *)PHYSTOP);
    80000188:	45c5                	li	a1,17
    8000018a:	05ee                	slli	a1,a1,0x1b
    8000018c:	00044517          	auipc	a0,0x44
    80000190:	69450513          	addi	a0,a0,1684 # 80044820 <end>
    80000194:	00000097          	auipc	ra,0x0
    80000198:	f70080e7          	jalr	-144(ra) # 80000104 <freerange>
}
    8000019c:	60a2                	ld	ra,8(sp)
    8000019e:	6402                	ld	s0,0(sp)
    800001a0:	0141                	addi	sp,sp,16
    800001a2:	8082                	ret

00000000800001a4 <kalloc>:

// Allocate one 4096-byte page of physical memory.
// Returns a pointer that the kernel can use.
// Returns 0 if the memory cannot be allocated.
void *kalloc(void) {
    800001a4:	1101                	addi	sp,sp,-32
    800001a6:	ec06                	sd	ra,24(sp)
    800001a8:	e822                	sd	s0,16(sp)
    800001aa:	e426                	sd	s1,8(sp)
    800001ac:	1000                	addi	s0,sp,32
  struct run *r;

  acquire(&kmem.lock);
    800001ae:	0000b497          	auipc	s1,0xb
    800001b2:	1e248493          	addi	s1,s1,482 # 8000b390 <kmem>
    800001b6:	8526                	mv	a0,s1
    800001b8:	00006097          	auipc	ra,0x6
    800001bc:	444080e7          	jalr	1092(ra) # 800065fc <acquire>
  r = kmem.freelist;
    800001c0:	6c84                	ld	s1,24(s1)
  if (r) kmem.freelist = r->next;
    800001c2:	c4a9                	beqz	s1,8000020c <kalloc+0x68>
    800001c4:	609c                	ld	a5,0(s1)
    800001c6:	0000b517          	auipc	a0,0xb
    800001ca:	1ca50513          	addi	a0,a0,458 # 8000b390 <kmem>
    800001ce:	ed1c                	sd	a5,24(a0)
  release(&kmem.lock);
    800001d0:	00006097          	auipc	ra,0x6
    800001d4:	4e0080e7          	jalr	1248(ra) # 800066b0 <release>

  if (r) {
    memset((char *)r, 5, PGSIZE);
    800001d8:	6605                	lui	a2,0x1
    800001da:	4595                	li	a1,5
    800001dc:	8526                	mv	a0,s1
    800001de:	00000097          	auipc	ra,0x0
    800001e2:	040080e7          	jalr	64(ra) # 8000021e <memset>
    ref.ref_count[P_IND((uint64)r)] = 1;
    800001e6:	77fd                	lui	a5,0xfffff
    800001e8:	8fe5                	and	a5,a5,s1
    800001ea:	80000737          	lui	a4,0x80000
    800001ee:	97ba                	add	a5,a5,a4
    800001f0:	83a9                	srli	a5,a5,0xa
    800001f2:	0000b717          	auipc	a4,0xb
    800001f6:	1ce70713          	addi	a4,a4,462 # 8000b3c0 <ref+0x10>
    800001fa:	97ba                	add	a5,a5,a4
    800001fc:	4705                	li	a4,1
    800001fe:	c798                	sw	a4,8(a5)
  }
  return (void *)r;
}
    80000200:	8526                	mv	a0,s1
    80000202:	60e2                	ld	ra,24(sp)
    80000204:	6442                	ld	s0,16(sp)
    80000206:	64a2                	ld	s1,8(sp)
    80000208:	6105                	addi	sp,sp,32
    8000020a:	8082                	ret
  release(&kmem.lock);
    8000020c:	0000b517          	auipc	a0,0xb
    80000210:	18450513          	addi	a0,a0,388 # 8000b390 <kmem>
    80000214:	00006097          	auipc	ra,0x6
    80000218:	49c080e7          	jalr	1180(ra) # 800066b0 <release>
  if (r) {
    8000021c:	b7d5                	j	80000200 <kalloc+0x5c>

000000008000021e <memset>:
#include "types.h"

void *memset(void *dst, int c, uint n) {
    8000021e:	1141                	addi	sp,sp,-16
    80000220:	e422                	sd	s0,8(sp)
    80000222:	0800                	addi	s0,sp,16
  char *cdst = (char *)dst;
  int i;
  for (i = 0; i < n; i++) {
    80000224:	ca19                	beqz	a2,8000023a <memset+0x1c>
    80000226:	87aa                	mv	a5,a0
    80000228:	1602                	slli	a2,a2,0x20
    8000022a:	9201                	srli	a2,a2,0x20
    8000022c:	00a60733          	add	a4,a2,a0
    cdst[i] = c;
    80000230:	00b78023          	sb	a1,0(a5) # fffffffffffff000 <end+0xffffffff7ffba7e0>
  for (i = 0; i < n; i++) {
    80000234:	0785                	addi	a5,a5,1
    80000236:	fee79de3          	bne	a5,a4,80000230 <memset+0x12>
  }
  return dst;
}
    8000023a:	6422                	ld	s0,8(sp)
    8000023c:	0141                	addi	sp,sp,16
    8000023e:	8082                	ret

0000000080000240 <memcmp>:

int memcmp(const void *v1, const void *v2, uint n) {
    80000240:	1141                	addi	sp,sp,-16
    80000242:	e422                	sd	s0,8(sp)
    80000244:	0800                	addi	s0,sp,16
  const uchar *s1, *s2;

  s1 = v1;
  s2 = v2;
  while (n-- > 0) {
    80000246:	ca05                	beqz	a2,80000276 <memcmp+0x36>
    80000248:	fff6069b          	addiw	a3,a2,-1 # fff <_entry-0x7ffff001>
    8000024c:	1682                	slli	a3,a3,0x20
    8000024e:	9281                	srli	a3,a3,0x20
    80000250:	0685                	addi	a3,a3,1
    80000252:	96aa                	add	a3,a3,a0
    if (*s1 != *s2) return *s1 - *s2;
    80000254:	00054783          	lbu	a5,0(a0)
    80000258:	0005c703          	lbu	a4,0(a1)
    8000025c:	00e79863          	bne	a5,a4,8000026c <memcmp+0x2c>
    s1++, s2++;
    80000260:	0505                	addi	a0,a0,1
    80000262:	0585                	addi	a1,a1,1
  while (n-- > 0) {
    80000264:	fed518e3          	bne	a0,a3,80000254 <memcmp+0x14>
  }

  return 0;
    80000268:	4501                	li	a0,0
    8000026a:	a019                	j	80000270 <memcmp+0x30>
    if (*s1 != *s2) return *s1 - *s2;
    8000026c:	40e7853b          	subw	a0,a5,a4
}
    80000270:	6422                	ld	s0,8(sp)
    80000272:	0141                	addi	sp,sp,16
    80000274:	8082                	ret
  return 0;
    80000276:	4501                	li	a0,0
    80000278:	bfe5                	j	80000270 <memcmp+0x30>

000000008000027a <memmove>:

void *memmove(void *dst, const void *src, uint n) {
    8000027a:	1141                	addi	sp,sp,-16
    8000027c:	e422                	sd	s0,8(sp)
    8000027e:	0800                	addi	s0,sp,16
  const char *s;
  char *d;

  if (n == 0) return dst;
    80000280:	c205                	beqz	a2,800002a0 <memmove+0x26>

  s = src;
  d = dst;
  if (s < d && s + n > d) {
    80000282:	02a5e263          	bltu	a1,a0,800002a6 <memmove+0x2c>
    s += n;
    d += n;
    while (n-- > 0) *--d = *--s;
  } else
    while (n-- > 0) *d++ = *s++;
    80000286:	1602                	slli	a2,a2,0x20
    80000288:	9201                	srli	a2,a2,0x20
    8000028a:	00c587b3          	add	a5,a1,a2
void *memmove(void *dst, const void *src, uint n) {
    8000028e:	872a                	mv	a4,a0
    while (n-- > 0) *d++ = *s++;
    80000290:	0585                	addi	a1,a1,1
    80000292:	0705                	addi	a4,a4,1
    80000294:	fff5c683          	lbu	a3,-1(a1)
    80000298:	fed70fa3          	sb	a3,-1(a4)
    8000029c:	feb79ae3          	bne	a5,a1,80000290 <memmove+0x16>

  return dst;
}
    800002a0:	6422                	ld	s0,8(sp)
    800002a2:	0141                	addi	sp,sp,16
    800002a4:	8082                	ret
  if (s < d && s + n > d) {
    800002a6:	02061693          	slli	a3,a2,0x20
    800002aa:	9281                	srli	a3,a3,0x20
    800002ac:	00d58733          	add	a4,a1,a3
    800002b0:	fce57be3          	bgeu	a0,a4,80000286 <memmove+0xc>
    d += n;
    800002b4:	96aa                	add	a3,a3,a0
    while (n-- > 0) *--d = *--s;
    800002b6:	fff6079b          	addiw	a5,a2,-1
    800002ba:	1782                	slli	a5,a5,0x20
    800002bc:	9381                	srli	a5,a5,0x20
    800002be:	fff7c793          	not	a5,a5
    800002c2:	97ba                	add	a5,a5,a4
    800002c4:	177d                	addi	a4,a4,-1
    800002c6:	16fd                	addi	a3,a3,-1
    800002c8:	00074603          	lbu	a2,0(a4)
    800002cc:	00c68023          	sb	a2,0(a3)
    800002d0:	fef71ae3          	bne	a4,a5,800002c4 <memmove+0x4a>
    800002d4:	b7f1                	j	800002a0 <memmove+0x26>

00000000800002d6 <memcpy>:

// memcpy exists to placate GCC.  Use memmove.
void *memcpy(void *dst, const void *src, uint n) {
    800002d6:	1141                	addi	sp,sp,-16
    800002d8:	e406                	sd	ra,8(sp)
    800002da:	e022                	sd	s0,0(sp)
    800002dc:	0800                	addi	s0,sp,16
  return memmove(dst, src, n);
    800002de:	00000097          	auipc	ra,0x0
    800002e2:	f9c080e7          	jalr	-100(ra) # 8000027a <memmove>
}
    800002e6:	60a2                	ld	ra,8(sp)
    800002e8:	6402                	ld	s0,0(sp)
    800002ea:	0141                	addi	sp,sp,16
    800002ec:	8082                	ret

00000000800002ee <strncmp>:

int strncmp(const char *p, const char *q, uint n) {
    800002ee:	1141                	addi	sp,sp,-16
    800002f0:	e422                	sd	s0,8(sp)
    800002f2:	0800                	addi	s0,sp,16
  while (n > 0 && *p && *p == *q) n--, p++, q++;
    800002f4:	ce11                	beqz	a2,80000310 <strncmp+0x22>
    800002f6:	00054783          	lbu	a5,0(a0)
    800002fa:	cf89                	beqz	a5,80000314 <strncmp+0x26>
    800002fc:	0005c703          	lbu	a4,0(a1)
    80000300:	00f71a63          	bne	a4,a5,80000314 <strncmp+0x26>
    80000304:	367d                	addiw	a2,a2,-1
    80000306:	0505                	addi	a0,a0,1
    80000308:	0585                	addi	a1,a1,1
    8000030a:	f675                	bnez	a2,800002f6 <strncmp+0x8>
  if (n == 0) return 0;
    8000030c:	4501                	li	a0,0
    8000030e:	a801                	j	8000031e <strncmp+0x30>
    80000310:	4501                	li	a0,0
    80000312:	a031                	j	8000031e <strncmp+0x30>
  return (uchar)*p - (uchar)*q;
    80000314:	00054503          	lbu	a0,0(a0)
    80000318:	0005c783          	lbu	a5,0(a1)
    8000031c:	9d1d                	subw	a0,a0,a5
}
    8000031e:	6422                	ld	s0,8(sp)
    80000320:	0141                	addi	sp,sp,16
    80000322:	8082                	ret

0000000080000324 <strncpy>:

char *strncpy(char *s, const char *t, int n) {
    80000324:	1141                	addi	sp,sp,-16
    80000326:	e422                	sd	s0,8(sp)
    80000328:	0800                	addi	s0,sp,16
  char *os;

  os = s;
  while (n-- > 0 && (*s++ = *t++) != 0);
    8000032a:	87aa                	mv	a5,a0
    8000032c:	86b2                	mv	a3,a2
    8000032e:	367d                	addiw	a2,a2,-1
    80000330:	02d05563          	blez	a3,8000035a <strncpy+0x36>
    80000334:	0785                	addi	a5,a5,1
    80000336:	0005c703          	lbu	a4,0(a1)
    8000033a:	fee78fa3          	sb	a4,-1(a5)
    8000033e:	0585                	addi	a1,a1,1
    80000340:	f775                	bnez	a4,8000032c <strncpy+0x8>
  while (n-- > 0) *s++ = 0;
    80000342:	873e                	mv	a4,a5
    80000344:	9fb5                	addw	a5,a5,a3
    80000346:	37fd                	addiw	a5,a5,-1
    80000348:	00c05963          	blez	a2,8000035a <strncpy+0x36>
    8000034c:	0705                	addi	a4,a4,1
    8000034e:	fe070fa3          	sb	zero,-1(a4)
    80000352:	40e786bb          	subw	a3,a5,a4
    80000356:	fed04be3          	bgtz	a3,8000034c <strncpy+0x28>
  return os;
}
    8000035a:	6422                	ld	s0,8(sp)
    8000035c:	0141                	addi	sp,sp,16
    8000035e:	8082                	ret

0000000080000360 <safestrcpy>:

// Like strncpy but guaranteed to NUL-terminate.
char *safestrcpy(char *s, const char *t, int n) {
    80000360:	1141                	addi	sp,sp,-16
    80000362:	e422                	sd	s0,8(sp)
    80000364:	0800                	addi	s0,sp,16
  char *os;

  os = s;
  if (n <= 0) return os;
    80000366:	02c05363          	blez	a2,8000038c <safestrcpy+0x2c>
    8000036a:	fff6069b          	addiw	a3,a2,-1
    8000036e:	1682                	slli	a3,a3,0x20
    80000370:	9281                	srli	a3,a3,0x20
    80000372:	96ae                	add	a3,a3,a1
    80000374:	87aa                	mv	a5,a0
  while (--n > 0 && (*s++ = *t++) != 0);
    80000376:	00d58963          	beq	a1,a3,80000388 <safestrcpy+0x28>
    8000037a:	0585                	addi	a1,a1,1
    8000037c:	0785                	addi	a5,a5,1
    8000037e:	fff5c703          	lbu	a4,-1(a1)
    80000382:	fee78fa3          	sb	a4,-1(a5)
    80000386:	fb65                	bnez	a4,80000376 <safestrcpy+0x16>
  *s = 0;
    80000388:	00078023          	sb	zero,0(a5)
  return os;
}
    8000038c:	6422                	ld	s0,8(sp)
    8000038e:	0141                	addi	sp,sp,16
    80000390:	8082                	ret

0000000080000392 <strlen>:

int strlen(const char *s) {
    80000392:	1141                	addi	sp,sp,-16
    80000394:	e422                	sd	s0,8(sp)
    80000396:	0800                	addi	s0,sp,16
  int n;

  for (n = 0; s[n]; n++);
    80000398:	00054783          	lbu	a5,0(a0)
    8000039c:	cf91                	beqz	a5,800003b8 <strlen+0x26>
    8000039e:	0505                	addi	a0,a0,1
    800003a0:	87aa                	mv	a5,a0
    800003a2:	86be                	mv	a3,a5
    800003a4:	0785                	addi	a5,a5,1
    800003a6:	fff7c703          	lbu	a4,-1(a5)
    800003aa:	ff65                	bnez	a4,800003a2 <strlen+0x10>
    800003ac:	40a6853b          	subw	a0,a3,a0
    800003b0:	2505                	addiw	a0,a0,1
  return n;
}
    800003b2:	6422                	ld	s0,8(sp)
    800003b4:	0141                	addi	sp,sp,16
    800003b6:	8082                	ret
  for (n = 0; s[n]; n++);
    800003b8:	4501                	li	a0,0
    800003ba:	bfe5                	j	800003b2 <strlen+0x20>

00000000800003bc <main>:
#include "defs.h"

volatile static int started = 0;

// start() jumps here in supervisor mode on all CPUs.
void main() {
    800003bc:	1141                	addi	sp,sp,-16
    800003be:	e406                	sd	ra,8(sp)
    800003c0:	e022                	sd	s0,0(sp)
    800003c2:	0800                	addi	s0,sp,16
  if (cpuid() == 0) {
    800003c4:	00001097          	auipc	ra,0x1
    800003c8:	cb2080e7          	jalr	-846(ra) # 80001076 <cpuid>
    virtio_disk_init();  // emulated hard disk
    userinit();          // first user process
    __sync_synchronize();
    started = 1;
  } else {
    while (started == 0);
    800003cc:	0000b717          	auipc	a4,0xb
    800003d0:	f9470713          	addi	a4,a4,-108 # 8000b360 <started>
  if (cpuid() == 0) {
    800003d4:	c139                	beqz	a0,8000041a <main+0x5e>
    while (started == 0);
    800003d6:	431c                	lw	a5,0(a4)
    800003d8:	2781                	sext.w	a5,a5
    800003da:	dff5                	beqz	a5,800003d6 <main+0x1a>
    __sync_synchronize();
    800003dc:	0330000f          	fence	rw,rw
    printf("hart %d starting\n", cpuid());
    800003e0:	00001097          	auipc	ra,0x1
    800003e4:	c96080e7          	jalr	-874(ra) # 80001076 <cpuid>
    800003e8:	85aa                	mv	a1,a0
    800003ea:	00008517          	auipc	a0,0x8
    800003ee:	c5650513          	addi	a0,a0,-938 # 80008040 <etext+0x40>
    800003f2:	00006097          	auipc	ra,0x6
    800003f6:	cda080e7          	jalr	-806(ra) # 800060cc <printf>
    kvminithart();   // turn on paging
    800003fa:	00000097          	auipc	ra,0x0
    800003fe:	0d8080e7          	jalr	216(ra) # 800004d2 <kvminithart>
    trapinithart();  // install kernel trap vector
    80000402:	00002097          	auipc	ra,0x2
    80000406:	944080e7          	jalr	-1724(ra) # 80001d46 <trapinithart>
    plicinithart();  // ask PLIC for device interrupts
    8000040a:	00005097          	auipc	ra,0x5
    8000040e:	11a080e7          	jalr	282(ra) # 80005524 <plicinithart>
  }

  scheduler();
    80000412:	00001097          	auipc	ra,0x1
    80000416:	18c080e7          	jalr	396(ra) # 8000159e <scheduler>
    consoleinit();
    8000041a:	00006097          	auipc	ra,0x6
    8000041e:	b78080e7          	jalr	-1160(ra) # 80005f92 <consoleinit>
    printfinit();
    80000422:	00006097          	auipc	ra,0x6
    80000426:	eb2080e7          	jalr	-334(ra) # 800062d4 <printfinit>
    printf("\n");
    8000042a:	00008517          	auipc	a0,0x8
    8000042e:	bf650513          	addi	a0,a0,-1034 # 80008020 <etext+0x20>
    80000432:	00006097          	auipc	ra,0x6
    80000436:	c9a080e7          	jalr	-870(ra) # 800060cc <printf>
    printf("xv6 kernel is booting\n");
    8000043a:	00008517          	auipc	a0,0x8
    8000043e:	bee50513          	addi	a0,a0,-1042 # 80008028 <etext+0x28>
    80000442:	00006097          	auipc	ra,0x6
    80000446:	c8a080e7          	jalr	-886(ra) # 800060cc <printf>
    printf("\n");
    8000044a:	00008517          	auipc	a0,0x8
    8000044e:	bd650513          	addi	a0,a0,-1066 # 80008020 <etext+0x20>
    80000452:	00006097          	auipc	ra,0x6
    80000456:	c7a080e7          	jalr	-902(ra) # 800060cc <printf>
    kinit();             // physical page allocator
    8000045a:	00000097          	auipc	ra,0x0
    8000045e:	cf6080e7          	jalr	-778(ra) # 80000150 <kinit>
    kvminit();           // create kernel page table
    80000462:	00000097          	auipc	ra,0x0
    80000466:	34a080e7          	jalr	842(ra) # 800007ac <kvminit>
    kvminithart();       // turn on paging
    8000046a:	00000097          	auipc	ra,0x0
    8000046e:	068080e7          	jalr	104(ra) # 800004d2 <kvminithart>
    procinit();          // process table
    80000472:	00001097          	auipc	ra,0x1
    80000476:	b42080e7          	jalr	-1214(ra) # 80000fb4 <procinit>
    trapinit();          // trap vectors
    8000047a:	00002097          	auipc	ra,0x2
    8000047e:	8a4080e7          	jalr	-1884(ra) # 80001d1e <trapinit>
    trapinithart();      // install kernel trap vector
    80000482:	00002097          	auipc	ra,0x2
    80000486:	8c4080e7          	jalr	-1852(ra) # 80001d46 <trapinithart>
    plicinit();          // set up interrupt controller
    8000048a:	00005097          	auipc	ra,0x5
    8000048e:	080080e7          	jalr	128(ra) # 8000550a <plicinit>
    plicinithart();      // ask PLIC for device interrupts
    80000492:	00005097          	auipc	ra,0x5
    80000496:	092080e7          	jalr	146(ra) # 80005524 <plicinithart>
    binit();             // buffer cache
    8000049a:	00002097          	auipc	ra,0x2
    8000049e:	13e080e7          	jalr	318(ra) # 800025d8 <binit>
    iinit();             // inode table
    800004a2:	00002097          	auipc	ra,0x2
    800004a6:	7f4080e7          	jalr	2036(ra) # 80002c96 <iinit>
    fileinit();          // file table
    800004aa:	00003097          	auipc	ra,0x3
    800004ae:	7a4080e7          	jalr	1956(ra) # 80003c4e <fileinit>
    virtio_disk_init();  // emulated hard disk
    800004b2:	00005097          	auipc	ra,0x5
    800004b6:	17a080e7          	jalr	378(ra) # 8000562c <virtio_disk_init>
    userinit();          // first user process
    800004ba:	00001097          	auipc	ra,0x1
    800004be:	ec4080e7          	jalr	-316(ra) # 8000137e <userinit>
    __sync_synchronize();
    800004c2:	0330000f          	fence	rw,rw
    started = 1;
    800004c6:	4785                	li	a5,1
    800004c8:	0000b717          	auipc	a4,0xb
    800004cc:	e8f72c23          	sw	a5,-360(a4) # 8000b360 <started>
    800004d0:	b789                	j	80000412 <main+0x56>

00000000800004d2 <kvminithart>:
// Initialize the one kernel_pagetable
void kvminit(void) { kernel_pagetable = kvmmake(); }

// Switch h/w page table register to the kernel's page table,
// and enable paging.
void kvminithart() {
    800004d2:	1141                	addi	sp,sp,-16
    800004d4:	e422                	sd	s0,8(sp)
    800004d6:	0800                	addi	s0,sp,16
}

// flush the TLB.
static inline void sfence_vma() {
  // the zero, zero means flush all TLB entries.
  asm volatile("sfence.vma zero, zero");
    800004d8:	12000073          	sfence.vma
  // wait for any previous writes to the page table memory to finish.
  sfence_vma();

  w_satp(MAKE_SATP(kernel_pagetable));
    800004dc:	0000b797          	auipc	a5,0xb
    800004e0:	e8c7b783          	ld	a5,-372(a5) # 8000b368 <kernel_pagetable>
    800004e4:	83b1                	srli	a5,a5,0xc
    800004e6:	577d                	li	a4,-1
    800004e8:	177e                	slli	a4,a4,0x3f
    800004ea:	8fd9                	or	a5,a5,a4
  asm volatile("csrw satp, %0" : : "r"(x));
    800004ec:	18079073          	csrw	satp,a5
  asm volatile("sfence.vma zero, zero");
    800004f0:	12000073          	sfence.vma

  // flush stale entries from the TLB.
  sfence_vma();
}
    800004f4:	6422                	ld	s0,8(sp)
    800004f6:	0141                	addi	sp,sp,16
    800004f8:	8082                	ret

00000000800004fa <walk>:
//   39..63 -- must be zero.
//   30..38 -- 9 bits of level-2 index.
//   21..29 -- 9 bits of level-1 index.
//   12..20 -- 9 bits of level-0 index.
//    0..11 -- 12 bits of byte offset within the page.
pte_t *walk(pagetable_t pagetable, uint64 va, int alloc) {
    800004fa:	7139                	addi	sp,sp,-64
    800004fc:	fc06                	sd	ra,56(sp)
    800004fe:	f822                	sd	s0,48(sp)
    80000500:	f426                	sd	s1,40(sp)
    80000502:	f04a                	sd	s2,32(sp)
    80000504:	ec4e                	sd	s3,24(sp)
    80000506:	e852                	sd	s4,16(sp)
    80000508:	e456                	sd	s5,8(sp)
    8000050a:	e05a                	sd	s6,0(sp)
    8000050c:	0080                	addi	s0,sp,64
    8000050e:	84aa                	mv	s1,a0
    80000510:	89ae                	mv	s3,a1
    80000512:	8ab2                	mv	s5,a2
  if (va >= MAXVA) panic("walk");
    80000514:	57fd                	li	a5,-1
    80000516:	83e9                	srli	a5,a5,0x1a
    80000518:	4a79                	li	s4,30

  for (int level = 2; level > 0; level--) {
    8000051a:	4b31                	li	s6,12
  if (va >= MAXVA) panic("walk");
    8000051c:	04b7f263          	bgeu	a5,a1,80000560 <walk+0x66>
    80000520:	00008517          	auipc	a0,0x8
    80000524:	b3850513          	addi	a0,a0,-1224 # 80008058 <etext+0x58>
    80000528:	00006097          	auipc	ra,0x6
    8000052c:	b5a080e7          	jalr	-1190(ra) # 80006082 <panic>
    pte_t *pte = &pagetable[PX(level, va)];
    if (*pte & PTE_V) {
      pagetable = (pagetable_t)PTE2PA(*pte);
    } else {
      if (!alloc || (pagetable = (pde_t *)kalloc()) == 0) return 0;
    80000530:	060a8663          	beqz	s5,8000059c <walk+0xa2>
    80000534:	00000097          	auipc	ra,0x0
    80000538:	c70080e7          	jalr	-912(ra) # 800001a4 <kalloc>
    8000053c:	84aa                	mv	s1,a0
    8000053e:	c529                	beqz	a0,80000588 <walk+0x8e>
      memset(pagetable, 0, PGSIZE);
    80000540:	6605                	lui	a2,0x1
    80000542:	4581                	li	a1,0
    80000544:	00000097          	auipc	ra,0x0
    80000548:	cda080e7          	jalr	-806(ra) # 8000021e <memset>
      *pte = PA2PTE(pagetable) | PTE_V;
    8000054c:	00c4d793          	srli	a5,s1,0xc
    80000550:	07aa                	slli	a5,a5,0xa
    80000552:	0017e793          	ori	a5,a5,1
    80000556:	00f93023          	sd	a5,0(s2)
  for (int level = 2; level > 0; level--) {
    8000055a:	3a5d                	addiw	s4,s4,-9 # ffffffffffffeff7 <end+0xffffffff7ffba7d7>
    8000055c:	036a0063          	beq	s4,s6,8000057c <walk+0x82>
    pte_t *pte = &pagetable[PX(level, va)];
    80000560:	0149d933          	srl	s2,s3,s4
    80000564:	1ff97913          	andi	s2,s2,511
    80000568:	090e                	slli	s2,s2,0x3
    8000056a:	9926                	add	s2,s2,s1
    if (*pte & PTE_V) {
    8000056c:	00093483          	ld	s1,0(s2)
    80000570:	0014f793          	andi	a5,s1,1
    80000574:	dfd5                	beqz	a5,80000530 <walk+0x36>
      pagetable = (pagetable_t)PTE2PA(*pte);
    80000576:	80a9                	srli	s1,s1,0xa
    80000578:	04b2                	slli	s1,s1,0xc
    8000057a:	b7c5                	j	8000055a <walk+0x60>
    }
  }
  return &pagetable[PX(0, va)];
    8000057c:	00c9d513          	srli	a0,s3,0xc
    80000580:	1ff57513          	andi	a0,a0,511
    80000584:	050e                	slli	a0,a0,0x3
    80000586:	9526                	add	a0,a0,s1
}
    80000588:	70e2                	ld	ra,56(sp)
    8000058a:	7442                	ld	s0,48(sp)
    8000058c:	74a2                	ld	s1,40(sp)
    8000058e:	7902                	ld	s2,32(sp)
    80000590:	69e2                	ld	s3,24(sp)
    80000592:	6a42                	ld	s4,16(sp)
    80000594:	6aa2                	ld	s5,8(sp)
    80000596:	6b02                	ld	s6,0(sp)
    80000598:	6121                	addi	sp,sp,64
    8000059a:	8082                	ret
      if (!alloc || (pagetable = (pde_t *)kalloc()) == 0) return 0;
    8000059c:	4501                	li	a0,0
    8000059e:	b7ed                	j	80000588 <walk+0x8e>

00000000800005a0 <walkaddr>:
// Can only be used to look up user pages.
uint64 walkaddr(pagetable_t pagetable, uint64 va) {
  pte_t *pte;
  uint64 pa;

  if (va >= MAXVA) return 0;
    800005a0:	57fd                	li	a5,-1
    800005a2:	83e9                	srli	a5,a5,0x1a
    800005a4:	00b7f463          	bgeu	a5,a1,800005ac <walkaddr+0xc>
    800005a8:	4501                	li	a0,0
  if (pte == 0) return 0;
  if ((*pte & PTE_V) == 0) return 0;
  if ((*pte & PTE_U) == 0) return 0;
  pa = PTE2PA(*pte);
  return pa;
}
    800005aa:	8082                	ret
uint64 walkaddr(pagetable_t pagetable, uint64 va) {
    800005ac:	1141                	addi	sp,sp,-16
    800005ae:	e406                	sd	ra,8(sp)
    800005b0:	e022                	sd	s0,0(sp)
    800005b2:	0800                	addi	s0,sp,16
  pte = walk(pagetable, va, 0);
    800005b4:	4601                	li	a2,0
    800005b6:	00000097          	auipc	ra,0x0
    800005ba:	f44080e7          	jalr	-188(ra) # 800004fa <walk>
  if (pte == 0) return 0;
    800005be:	c105                	beqz	a0,800005de <walkaddr+0x3e>
  if ((*pte & PTE_V) == 0) return 0;
    800005c0:	611c                	ld	a5,0(a0)
  if ((*pte & PTE_U) == 0) return 0;
    800005c2:	0117f693          	andi	a3,a5,17
    800005c6:	4745                	li	a4,17
    800005c8:	4501                	li	a0,0
    800005ca:	00e68663          	beq	a3,a4,800005d6 <walkaddr+0x36>
}
    800005ce:	60a2                	ld	ra,8(sp)
    800005d0:	6402                	ld	s0,0(sp)
    800005d2:	0141                	addi	sp,sp,16
    800005d4:	8082                	ret
  pa = PTE2PA(*pte);
    800005d6:	83a9                	srli	a5,a5,0xa
    800005d8:	00c79513          	slli	a0,a5,0xc
  return pa;
    800005dc:	bfcd                	j	800005ce <walkaddr+0x2e>
  if (pte == 0) return 0;
    800005de:	4501                	li	a0,0
    800005e0:	b7fd                	j	800005ce <walkaddr+0x2e>

00000000800005e2 <mappages>:
// physical addresses starting at pa.
// va and size MUST be page-aligned.
// Returns 0 on success, -1 if walk() couldn't
// allocate a needed page-table page.
int mappages(pagetable_t pagetable, uint64 va, uint64 size, uint64 pa,
             int perm) {
    800005e2:	715d                	addi	sp,sp,-80
    800005e4:	e486                	sd	ra,72(sp)
    800005e6:	e0a2                	sd	s0,64(sp)
    800005e8:	fc26                	sd	s1,56(sp)
    800005ea:	f84a                	sd	s2,48(sp)
    800005ec:	f44e                	sd	s3,40(sp)
    800005ee:	f052                	sd	s4,32(sp)
    800005f0:	ec56                	sd	s5,24(sp)
    800005f2:	e85a                	sd	s6,16(sp)
    800005f4:	e45e                	sd	s7,8(sp)
    800005f6:	0880                	addi	s0,sp,80
  uint64 a, last;
  pte_t *pte;

  if ((va % PGSIZE) != 0) panic("mappages: va not aligned");
    800005f8:	03459793          	slli	a5,a1,0x34
    800005fc:	e7b9                	bnez	a5,8000064a <mappages+0x68>
    800005fe:	8aaa                	mv	s5,a0
    80000600:	8b3a                	mv	s6,a4

  if ((size % PGSIZE) != 0) panic("mappages: size not aligned");
    80000602:	03461793          	slli	a5,a2,0x34
    80000606:	ebb1                	bnez	a5,8000065a <mappages+0x78>

  if (size == 0) panic("mappages: size");
    80000608:	c22d                	beqz	a2,8000066a <mappages+0x88>

  a = va;
  last = va + size - PGSIZE;
    8000060a:	77fd                	lui	a5,0xfffff
    8000060c:	963e                	add	a2,a2,a5
    8000060e:	00b609b3          	add	s3,a2,a1
  a = va;
    80000612:	892e                	mv	s2,a1
    80000614:	40b68a33          	sub	s4,a3,a1
  for (;;) {
    if ((pte = walk(pagetable, a, 1)) == 0) return -1;
    if (*pte & PTE_V) panic("mappages: remap");
    *pte = PA2PTE(pa) | perm | PTE_V;
    if (a == last) break;
    a += PGSIZE;
    80000618:	6b85                	lui	s7,0x1
    8000061a:	014904b3          	add	s1,s2,s4
    if ((pte = walk(pagetable, a, 1)) == 0) return -1;
    8000061e:	4605                	li	a2,1
    80000620:	85ca                	mv	a1,s2
    80000622:	8556                	mv	a0,s5
    80000624:	00000097          	auipc	ra,0x0
    80000628:	ed6080e7          	jalr	-298(ra) # 800004fa <walk>
    8000062c:	cd39                	beqz	a0,8000068a <mappages+0xa8>
    if (*pte & PTE_V) panic("mappages: remap");
    8000062e:	611c                	ld	a5,0(a0)
    80000630:	8b85                	andi	a5,a5,1
    80000632:	e7a1                	bnez	a5,8000067a <mappages+0x98>
    *pte = PA2PTE(pa) | perm | PTE_V;
    80000634:	80b1                	srli	s1,s1,0xc
    80000636:	04aa                	slli	s1,s1,0xa
    80000638:	0164e4b3          	or	s1,s1,s6
    8000063c:	0014e493          	ori	s1,s1,1
    80000640:	e104                	sd	s1,0(a0)
    if (a == last) break;
    80000642:	07390063          	beq	s2,s3,800006a2 <mappages+0xc0>
    a += PGSIZE;
    80000646:	995e                	add	s2,s2,s7
    if ((pte = walk(pagetable, a, 1)) == 0) return -1;
    80000648:	bfc9                	j	8000061a <mappages+0x38>
  if ((va % PGSIZE) != 0) panic("mappages: va not aligned");
    8000064a:	00008517          	auipc	a0,0x8
    8000064e:	a1650513          	addi	a0,a0,-1514 # 80008060 <etext+0x60>
    80000652:	00006097          	auipc	ra,0x6
    80000656:	a30080e7          	jalr	-1488(ra) # 80006082 <panic>
  if ((size % PGSIZE) != 0) panic("mappages: size not aligned");
    8000065a:	00008517          	auipc	a0,0x8
    8000065e:	a2650513          	addi	a0,a0,-1498 # 80008080 <etext+0x80>
    80000662:	00006097          	auipc	ra,0x6
    80000666:	a20080e7          	jalr	-1504(ra) # 80006082 <panic>
  if (size == 0) panic("mappages: size");
    8000066a:	00008517          	auipc	a0,0x8
    8000066e:	a3650513          	addi	a0,a0,-1482 # 800080a0 <etext+0xa0>
    80000672:	00006097          	auipc	ra,0x6
    80000676:	a10080e7          	jalr	-1520(ra) # 80006082 <panic>
    if (*pte & PTE_V) panic("mappages: remap");
    8000067a:	00008517          	auipc	a0,0x8
    8000067e:	a3650513          	addi	a0,a0,-1482 # 800080b0 <etext+0xb0>
    80000682:	00006097          	auipc	ra,0x6
    80000686:	a00080e7          	jalr	-1536(ra) # 80006082 <panic>
    if ((pte = walk(pagetable, a, 1)) == 0) return -1;
    8000068a:	557d                	li	a0,-1
    pa += PGSIZE;
  }
  return 0;
}
    8000068c:	60a6                	ld	ra,72(sp)
    8000068e:	6406                	ld	s0,64(sp)
    80000690:	74e2                	ld	s1,56(sp)
    80000692:	7942                	ld	s2,48(sp)
    80000694:	79a2                	ld	s3,40(sp)
    80000696:	7a02                	ld	s4,32(sp)
    80000698:	6ae2                	ld	s5,24(sp)
    8000069a:	6b42                	ld	s6,16(sp)
    8000069c:	6ba2                	ld	s7,8(sp)
    8000069e:	6161                	addi	sp,sp,80
    800006a0:	8082                	ret
  return 0;
    800006a2:	4501                	li	a0,0
    800006a4:	b7e5                	j	8000068c <mappages+0xaa>

00000000800006a6 <kvmmap>:
void kvmmap(pagetable_t kpgtbl, uint64 va, uint64 pa, uint64 sz, int perm) {
    800006a6:	1141                	addi	sp,sp,-16
    800006a8:	e406                	sd	ra,8(sp)
    800006aa:	e022                	sd	s0,0(sp)
    800006ac:	0800                	addi	s0,sp,16
    800006ae:	87b6                	mv	a5,a3
  if (mappages(kpgtbl, va, sz, pa, perm) != 0) panic("kvmmap");
    800006b0:	86b2                	mv	a3,a2
    800006b2:	863e                	mv	a2,a5
    800006b4:	00000097          	auipc	ra,0x0
    800006b8:	f2e080e7          	jalr	-210(ra) # 800005e2 <mappages>
    800006bc:	e509                	bnez	a0,800006c6 <kvmmap+0x20>
}
    800006be:	60a2                	ld	ra,8(sp)
    800006c0:	6402                	ld	s0,0(sp)
    800006c2:	0141                	addi	sp,sp,16
    800006c4:	8082                	ret
  if (mappages(kpgtbl, va, sz, pa, perm) != 0) panic("kvmmap");
    800006c6:	00008517          	auipc	a0,0x8
    800006ca:	9fa50513          	addi	a0,a0,-1542 # 800080c0 <etext+0xc0>
    800006ce:	00006097          	auipc	ra,0x6
    800006d2:	9b4080e7          	jalr	-1612(ra) # 80006082 <panic>

00000000800006d6 <kvmmake>:
pagetable_t kvmmake(void) {
    800006d6:	1101                	addi	sp,sp,-32
    800006d8:	ec06                	sd	ra,24(sp)
    800006da:	e822                	sd	s0,16(sp)
    800006dc:	e426                	sd	s1,8(sp)
    800006de:	e04a                	sd	s2,0(sp)
    800006e0:	1000                	addi	s0,sp,32
  kpgtbl = (pagetable_t)kalloc();
    800006e2:	00000097          	auipc	ra,0x0
    800006e6:	ac2080e7          	jalr	-1342(ra) # 800001a4 <kalloc>
    800006ea:	84aa                	mv	s1,a0
  memset(kpgtbl, 0, PGSIZE);
    800006ec:	6605                	lui	a2,0x1
    800006ee:	4581                	li	a1,0
    800006f0:	00000097          	auipc	ra,0x0
    800006f4:	b2e080e7          	jalr	-1234(ra) # 8000021e <memset>
  kvmmap(kpgtbl, UART0, UART0, PGSIZE, PTE_R | PTE_W);
    800006f8:	4719                	li	a4,6
    800006fa:	6685                	lui	a3,0x1
    800006fc:	10000637          	lui	a2,0x10000
    80000700:	100005b7          	lui	a1,0x10000
    80000704:	8526                	mv	a0,s1
    80000706:	00000097          	auipc	ra,0x0
    8000070a:	fa0080e7          	jalr	-96(ra) # 800006a6 <kvmmap>
  kvmmap(kpgtbl, VIRTIO0, VIRTIO0, PGSIZE, PTE_R | PTE_W);
    8000070e:	4719                	li	a4,6
    80000710:	6685                	lui	a3,0x1
    80000712:	10001637          	lui	a2,0x10001
    80000716:	100015b7          	lui	a1,0x10001
    8000071a:	8526                	mv	a0,s1
    8000071c:	00000097          	auipc	ra,0x0
    80000720:	f8a080e7          	jalr	-118(ra) # 800006a6 <kvmmap>
  kvmmap(kpgtbl, PLIC, PLIC, 0x400000, PTE_R | PTE_W);
    80000724:	4719                	li	a4,6
    80000726:	004006b7          	lui	a3,0x400
    8000072a:	0c000637          	lui	a2,0xc000
    8000072e:	0c0005b7          	lui	a1,0xc000
    80000732:	8526                	mv	a0,s1
    80000734:	00000097          	auipc	ra,0x0
    80000738:	f72080e7          	jalr	-142(ra) # 800006a6 <kvmmap>
  kvmmap(kpgtbl, KERNBASE, KERNBASE, (uint64)etext - KERNBASE, PTE_R | PTE_X);
    8000073c:	00008917          	auipc	s2,0x8
    80000740:	8c490913          	addi	s2,s2,-1852 # 80008000 <etext>
    80000744:	4729                	li	a4,10
    80000746:	80008697          	auipc	a3,0x80008
    8000074a:	8ba68693          	addi	a3,a3,-1862 # 8000 <_entry-0x7fff8000>
    8000074e:	4605                	li	a2,1
    80000750:	067e                	slli	a2,a2,0x1f
    80000752:	85b2                	mv	a1,a2
    80000754:	8526                	mv	a0,s1
    80000756:	00000097          	auipc	ra,0x0
    8000075a:	f50080e7          	jalr	-176(ra) # 800006a6 <kvmmap>
  kvmmap(kpgtbl, (uint64)etext, (uint64)etext, PHYSTOP - (uint64)etext,
    8000075e:	46c5                	li	a3,17
    80000760:	06ee                	slli	a3,a3,0x1b
    80000762:	4719                	li	a4,6
    80000764:	412686b3          	sub	a3,a3,s2
    80000768:	864a                	mv	a2,s2
    8000076a:	85ca                	mv	a1,s2
    8000076c:	8526                	mv	a0,s1
    8000076e:	00000097          	auipc	ra,0x0
    80000772:	f38080e7          	jalr	-200(ra) # 800006a6 <kvmmap>
  kvmmap(kpgtbl, TRAMPOLINE, (uint64)trampoline, PGSIZE, PTE_R | PTE_X);
    80000776:	4729                	li	a4,10
    80000778:	6685                	lui	a3,0x1
    8000077a:	00007617          	auipc	a2,0x7
    8000077e:	88660613          	addi	a2,a2,-1914 # 80007000 <_trampoline>
    80000782:	040005b7          	lui	a1,0x4000
    80000786:	15fd                	addi	a1,a1,-1 # 3ffffff <_entry-0x7c000001>
    80000788:	05b2                	slli	a1,a1,0xc
    8000078a:	8526                	mv	a0,s1
    8000078c:	00000097          	auipc	ra,0x0
    80000790:	f1a080e7          	jalr	-230(ra) # 800006a6 <kvmmap>
  proc_mapstacks(kpgtbl);
    80000794:	8526                	mv	a0,s1
    80000796:	00000097          	auipc	ra,0x0
    8000079a:	77a080e7          	jalr	1914(ra) # 80000f10 <proc_mapstacks>
}
    8000079e:	8526                	mv	a0,s1
    800007a0:	60e2                	ld	ra,24(sp)
    800007a2:	6442                	ld	s0,16(sp)
    800007a4:	64a2                	ld	s1,8(sp)
    800007a6:	6902                	ld	s2,0(sp)
    800007a8:	6105                	addi	sp,sp,32
    800007aa:	8082                	ret

00000000800007ac <kvminit>:
void kvminit(void) { kernel_pagetable = kvmmake(); }
    800007ac:	1141                	addi	sp,sp,-16
    800007ae:	e406                	sd	ra,8(sp)
    800007b0:	e022                	sd	s0,0(sp)
    800007b2:	0800                	addi	s0,sp,16
    800007b4:	00000097          	auipc	ra,0x0
    800007b8:	f22080e7          	jalr	-222(ra) # 800006d6 <kvmmake>
    800007bc:	0000b797          	auipc	a5,0xb
    800007c0:	baa7b623          	sd	a0,-1108(a5) # 8000b368 <kernel_pagetable>
    800007c4:	60a2                	ld	ra,8(sp)
    800007c6:	6402                	ld	s0,0(sp)
    800007c8:	0141                	addi	sp,sp,16
    800007ca:	8082                	ret

00000000800007cc <uvmunmap>:

// Remove npages of mappings starting from va. va must be
// page-aligned. The mappings must exist.
// Optionally free the physical memory.
void uvmunmap(pagetable_t pagetable, uint64 va, uint64 npages, int do_free) {
    800007cc:	715d                	addi	sp,sp,-80
    800007ce:	e486                	sd	ra,72(sp)
    800007d0:	e0a2                	sd	s0,64(sp)
    800007d2:	0880                	addi	s0,sp,80
  uint64 a;
  pte_t *pte;

  if ((va % PGSIZE) != 0) panic("uvmunmap: not aligned");
    800007d4:	03459793          	slli	a5,a1,0x34
    800007d8:	e39d                	bnez	a5,800007fe <uvmunmap+0x32>
    800007da:	f84a                	sd	s2,48(sp)
    800007dc:	f44e                	sd	s3,40(sp)
    800007de:	f052                	sd	s4,32(sp)
    800007e0:	ec56                	sd	s5,24(sp)
    800007e2:	e85a                	sd	s6,16(sp)
    800007e4:	e45e                	sd	s7,8(sp)
    800007e6:	8a2a                	mv	s4,a0
    800007e8:	892e                	mv	s2,a1
    800007ea:	8ab6                	mv	s5,a3

  for (a = va; a < va + npages * PGSIZE; a += PGSIZE) {
    800007ec:	0632                	slli	a2,a2,0xc
    800007ee:	00b609b3          	add	s3,a2,a1
    if ((pte = walk(pagetable, a, 0)) == 0) panic("uvmunmap: walk");
    if ((*pte & PTE_V) == 0) panic("uvmunmap: not mapped");
    if (PTE_FLAGS(*pte) == PTE_V) panic("uvmunmap: not a leaf");
    800007f2:	4b85                	li	s7,1
  for (a = va; a < va + npages * PGSIZE; a += PGSIZE) {
    800007f4:	6b05                	lui	s6,0x1
    800007f6:	0935fb63          	bgeu	a1,s3,8000088c <uvmunmap+0xc0>
    800007fa:	fc26                	sd	s1,56(sp)
    800007fc:	a8a9                	j	80000856 <uvmunmap+0x8a>
    800007fe:	fc26                	sd	s1,56(sp)
    80000800:	f84a                	sd	s2,48(sp)
    80000802:	f44e                	sd	s3,40(sp)
    80000804:	f052                	sd	s4,32(sp)
    80000806:	ec56                	sd	s5,24(sp)
    80000808:	e85a                	sd	s6,16(sp)
    8000080a:	e45e                	sd	s7,8(sp)
  if ((va % PGSIZE) != 0) panic("uvmunmap: not aligned");
    8000080c:	00008517          	auipc	a0,0x8
    80000810:	8bc50513          	addi	a0,a0,-1860 # 800080c8 <etext+0xc8>
    80000814:	00006097          	auipc	ra,0x6
    80000818:	86e080e7          	jalr	-1938(ra) # 80006082 <panic>
    if ((pte = walk(pagetable, a, 0)) == 0) panic("uvmunmap: walk");
    8000081c:	00008517          	auipc	a0,0x8
    80000820:	8c450513          	addi	a0,a0,-1852 # 800080e0 <etext+0xe0>
    80000824:	00006097          	auipc	ra,0x6
    80000828:	85e080e7          	jalr	-1954(ra) # 80006082 <panic>
    if ((*pte & PTE_V) == 0) panic("uvmunmap: not mapped");
    8000082c:	00008517          	auipc	a0,0x8
    80000830:	8c450513          	addi	a0,a0,-1852 # 800080f0 <etext+0xf0>
    80000834:	00006097          	auipc	ra,0x6
    80000838:	84e080e7          	jalr	-1970(ra) # 80006082 <panic>
    if (PTE_FLAGS(*pte) == PTE_V) panic("uvmunmap: not a leaf");
    8000083c:	00008517          	auipc	a0,0x8
    80000840:	8cc50513          	addi	a0,a0,-1844 # 80008108 <etext+0x108>
    80000844:	00006097          	auipc	ra,0x6
    80000848:	83e080e7          	jalr	-1986(ra) # 80006082 <panic>
    if (do_free) {
      uint64 pa = PTE2PA(*pte);
      kfree((void *)pa);
    }
    *pte = 0;
    8000084c:	0004b023          	sd	zero,0(s1)
  for (a = va; a < va + npages * PGSIZE; a += PGSIZE) {
    80000850:	995a                	add	s2,s2,s6
    80000852:	03397c63          	bgeu	s2,s3,8000088a <uvmunmap+0xbe>
    if ((pte = walk(pagetable, a, 0)) == 0) panic("uvmunmap: walk");
    80000856:	4601                	li	a2,0
    80000858:	85ca                	mv	a1,s2
    8000085a:	8552                	mv	a0,s4
    8000085c:	00000097          	auipc	ra,0x0
    80000860:	c9e080e7          	jalr	-866(ra) # 800004fa <walk>
    80000864:	84aa                	mv	s1,a0
    80000866:	d95d                	beqz	a0,8000081c <uvmunmap+0x50>
    if ((*pte & PTE_V) == 0) panic("uvmunmap: not mapped");
    80000868:	6108                	ld	a0,0(a0)
    8000086a:	00157793          	andi	a5,a0,1
    8000086e:	dfdd                	beqz	a5,8000082c <uvmunmap+0x60>
    if (PTE_FLAGS(*pte) == PTE_V) panic("uvmunmap: not a leaf");
    80000870:	3ff57793          	andi	a5,a0,1023
    80000874:	fd7784e3          	beq	a5,s7,8000083c <uvmunmap+0x70>
    if (do_free) {
    80000878:	fc0a8ae3          	beqz	s5,8000084c <uvmunmap+0x80>
      uint64 pa = PTE2PA(*pte);
    8000087c:	8129                	srli	a0,a0,0xa
      kfree((void *)pa);
    8000087e:	0532                	slli	a0,a0,0xc
    80000880:	fffff097          	auipc	ra,0xfffff
    80000884:	7ee080e7          	jalr	2030(ra) # 8000006e <kfree>
    80000888:	b7d1                	j	8000084c <uvmunmap+0x80>
    8000088a:	74e2                	ld	s1,56(sp)
    8000088c:	7942                	ld	s2,48(sp)
    8000088e:	79a2                	ld	s3,40(sp)
    80000890:	7a02                	ld	s4,32(sp)
    80000892:	6ae2                	ld	s5,24(sp)
    80000894:	6b42                	ld	s6,16(sp)
    80000896:	6ba2                	ld	s7,8(sp)
  }
}
    80000898:	60a6                	ld	ra,72(sp)
    8000089a:	6406                	ld	s0,64(sp)
    8000089c:	6161                	addi	sp,sp,80
    8000089e:	8082                	ret

00000000800008a0 <uvmcreate>:

// create an empty user page table.
// returns 0 if out of memory.
pagetable_t uvmcreate() {
    800008a0:	1101                	addi	sp,sp,-32
    800008a2:	ec06                	sd	ra,24(sp)
    800008a4:	e822                	sd	s0,16(sp)
    800008a6:	e426                	sd	s1,8(sp)
    800008a8:	1000                	addi	s0,sp,32
  pagetable_t pagetable;
  pagetable = (pagetable_t)kalloc();
    800008aa:	00000097          	auipc	ra,0x0
    800008ae:	8fa080e7          	jalr	-1798(ra) # 800001a4 <kalloc>
    800008b2:	84aa                	mv	s1,a0
  if (pagetable == 0) return 0;
    800008b4:	c519                	beqz	a0,800008c2 <uvmcreate+0x22>
  memset(pagetable, 0, PGSIZE);
    800008b6:	6605                	lui	a2,0x1
    800008b8:	4581                	li	a1,0
    800008ba:	00000097          	auipc	ra,0x0
    800008be:	964080e7          	jalr	-1692(ra) # 8000021e <memset>
  return pagetable;
}
    800008c2:	8526                	mv	a0,s1
    800008c4:	60e2                	ld	ra,24(sp)
    800008c6:	6442                	ld	s0,16(sp)
    800008c8:	64a2                	ld	s1,8(sp)
    800008ca:	6105                	addi	sp,sp,32
    800008cc:	8082                	ret

00000000800008ce <uvmfirst>:

// Load the user initcode into address 0 of pagetable,
// for the very first process.
// sz must be less than a page.
void uvmfirst(pagetable_t pagetable, uchar *src, uint sz) {
    800008ce:	7179                	addi	sp,sp,-48
    800008d0:	f406                	sd	ra,40(sp)
    800008d2:	f022                	sd	s0,32(sp)
    800008d4:	ec26                	sd	s1,24(sp)
    800008d6:	e84a                	sd	s2,16(sp)
    800008d8:	e44e                	sd	s3,8(sp)
    800008da:	e052                	sd	s4,0(sp)
    800008dc:	1800                	addi	s0,sp,48
  char *mem;

  if (sz >= PGSIZE) panic("uvmfirst: more than a page");
    800008de:	6785                	lui	a5,0x1
    800008e0:	04f67863          	bgeu	a2,a5,80000930 <uvmfirst+0x62>
    800008e4:	8a2a                	mv	s4,a0
    800008e6:	89ae                	mv	s3,a1
    800008e8:	84b2                	mv	s1,a2
  mem = kalloc();
    800008ea:	00000097          	auipc	ra,0x0
    800008ee:	8ba080e7          	jalr	-1862(ra) # 800001a4 <kalloc>
    800008f2:	892a                	mv	s2,a0
  memset(mem, 0, PGSIZE);
    800008f4:	6605                	lui	a2,0x1
    800008f6:	4581                	li	a1,0
    800008f8:	00000097          	auipc	ra,0x0
    800008fc:	926080e7          	jalr	-1754(ra) # 8000021e <memset>
  mappages(pagetable, 0, PGSIZE, (uint64)mem, PTE_W | PTE_R | PTE_X | PTE_U);
    80000900:	4779                	li	a4,30
    80000902:	86ca                	mv	a3,s2
    80000904:	6605                	lui	a2,0x1
    80000906:	4581                	li	a1,0
    80000908:	8552                	mv	a0,s4
    8000090a:	00000097          	auipc	ra,0x0
    8000090e:	cd8080e7          	jalr	-808(ra) # 800005e2 <mappages>
  memmove(mem, src, sz);
    80000912:	8626                	mv	a2,s1
    80000914:	85ce                	mv	a1,s3
    80000916:	854a                	mv	a0,s2
    80000918:	00000097          	auipc	ra,0x0
    8000091c:	962080e7          	jalr	-1694(ra) # 8000027a <memmove>
}
    80000920:	70a2                	ld	ra,40(sp)
    80000922:	7402                	ld	s0,32(sp)
    80000924:	64e2                	ld	s1,24(sp)
    80000926:	6942                	ld	s2,16(sp)
    80000928:	69a2                	ld	s3,8(sp)
    8000092a:	6a02                	ld	s4,0(sp)
    8000092c:	6145                	addi	sp,sp,48
    8000092e:	8082                	ret
  if (sz >= PGSIZE) panic("uvmfirst: more than a page");
    80000930:	00007517          	auipc	a0,0x7
    80000934:	7f050513          	addi	a0,a0,2032 # 80008120 <etext+0x120>
    80000938:	00005097          	auipc	ra,0x5
    8000093c:	74a080e7          	jalr	1866(ra) # 80006082 <panic>

0000000080000940 <uvmdealloc>:

// Deallocate user pages to bring the process size from oldsz to
// newsz.  oldsz and newsz need not be page-aligned, nor does newsz
// need to be less than oldsz.  oldsz can be larger than the actual
// process size.  Returns the new process size.
uint64 uvmdealloc(pagetable_t pagetable, uint64 oldsz, uint64 newsz) {
    80000940:	1101                	addi	sp,sp,-32
    80000942:	ec06                	sd	ra,24(sp)
    80000944:	e822                	sd	s0,16(sp)
    80000946:	e426                	sd	s1,8(sp)
    80000948:	1000                	addi	s0,sp,32
  if (newsz >= oldsz) return oldsz;
    8000094a:	84ae                	mv	s1,a1
    8000094c:	00b67d63          	bgeu	a2,a1,80000966 <uvmdealloc+0x26>
    80000950:	84b2                	mv	s1,a2

  if (PGROUNDUP(newsz) < PGROUNDUP(oldsz)) {
    80000952:	6785                	lui	a5,0x1
    80000954:	17fd                	addi	a5,a5,-1 # fff <_entry-0x7ffff001>
    80000956:	00f60733          	add	a4,a2,a5
    8000095a:	76fd                	lui	a3,0xfffff
    8000095c:	8f75                	and	a4,a4,a3
    8000095e:	97ae                	add	a5,a5,a1
    80000960:	8ff5                	and	a5,a5,a3
    80000962:	00f76863          	bltu	a4,a5,80000972 <uvmdealloc+0x32>
    int npages = (PGROUNDUP(oldsz) - PGROUNDUP(newsz)) / PGSIZE;
    uvmunmap(pagetable, PGROUNDUP(newsz), npages, 1);
  }

  return newsz;
}
    80000966:	8526                	mv	a0,s1
    80000968:	60e2                	ld	ra,24(sp)
    8000096a:	6442                	ld	s0,16(sp)
    8000096c:	64a2                	ld	s1,8(sp)
    8000096e:	6105                	addi	sp,sp,32
    80000970:	8082                	ret
    int npages = (PGROUNDUP(oldsz) - PGROUNDUP(newsz)) / PGSIZE;
    80000972:	8f99                	sub	a5,a5,a4
    80000974:	83b1                	srli	a5,a5,0xc
    uvmunmap(pagetable, PGROUNDUP(newsz), npages, 1);
    80000976:	4685                	li	a3,1
    80000978:	0007861b          	sext.w	a2,a5
    8000097c:	85ba                	mv	a1,a4
    8000097e:	00000097          	auipc	ra,0x0
    80000982:	e4e080e7          	jalr	-434(ra) # 800007cc <uvmunmap>
    80000986:	b7c5                	j	80000966 <uvmdealloc+0x26>

0000000080000988 <uvmalloc>:
  if (newsz < oldsz) return oldsz;
    80000988:	0ab66b63          	bltu	a2,a1,80000a3e <uvmalloc+0xb6>
uint64 uvmalloc(pagetable_t pagetable, uint64 oldsz, uint64 newsz, int xperm) {
    8000098c:	7139                	addi	sp,sp,-64
    8000098e:	fc06                	sd	ra,56(sp)
    80000990:	f822                	sd	s0,48(sp)
    80000992:	ec4e                	sd	s3,24(sp)
    80000994:	e852                	sd	s4,16(sp)
    80000996:	e456                	sd	s5,8(sp)
    80000998:	0080                	addi	s0,sp,64
    8000099a:	8aaa                	mv	s5,a0
    8000099c:	8a32                	mv	s4,a2
  oldsz = PGROUNDUP(oldsz);
    8000099e:	6785                	lui	a5,0x1
    800009a0:	17fd                	addi	a5,a5,-1 # fff <_entry-0x7ffff001>
    800009a2:	95be                	add	a1,a1,a5
    800009a4:	77fd                	lui	a5,0xfffff
    800009a6:	00f5f9b3          	and	s3,a1,a5
  for (a = oldsz; a < newsz; a += PGSIZE) {
    800009aa:	08c9fc63          	bgeu	s3,a2,80000a42 <uvmalloc+0xba>
    800009ae:	f426                	sd	s1,40(sp)
    800009b0:	f04a                	sd	s2,32(sp)
    800009b2:	e05a                	sd	s6,0(sp)
    800009b4:	894e                	mv	s2,s3
    if (mappages(pagetable, a, PGSIZE, (uint64)mem, PTE_R | PTE_U | xperm) !=
    800009b6:	0126eb13          	ori	s6,a3,18
    mem = kalloc();
    800009ba:	fffff097          	auipc	ra,0xfffff
    800009be:	7ea080e7          	jalr	2026(ra) # 800001a4 <kalloc>
    800009c2:	84aa                	mv	s1,a0
    if (mem == 0) {
    800009c4:	c915                	beqz	a0,800009f8 <uvmalloc+0x70>
    memset(mem, 0, PGSIZE);
    800009c6:	6605                	lui	a2,0x1
    800009c8:	4581                	li	a1,0
    800009ca:	00000097          	auipc	ra,0x0
    800009ce:	854080e7          	jalr	-1964(ra) # 8000021e <memset>
    if (mappages(pagetable, a, PGSIZE, (uint64)mem, PTE_R | PTE_U | xperm) !=
    800009d2:	875a                	mv	a4,s6
    800009d4:	86a6                	mv	a3,s1
    800009d6:	6605                	lui	a2,0x1
    800009d8:	85ca                	mv	a1,s2
    800009da:	8556                	mv	a0,s5
    800009dc:	00000097          	auipc	ra,0x0
    800009e0:	c06080e7          	jalr	-1018(ra) # 800005e2 <mappages>
    800009e4:	ed05                	bnez	a0,80000a1c <uvmalloc+0x94>
  for (a = oldsz; a < newsz; a += PGSIZE) {
    800009e6:	6785                	lui	a5,0x1
    800009e8:	993e                	add	s2,s2,a5
    800009ea:	fd4968e3          	bltu	s2,s4,800009ba <uvmalloc+0x32>
  return newsz;
    800009ee:	8552                	mv	a0,s4
    800009f0:	74a2                	ld	s1,40(sp)
    800009f2:	7902                	ld	s2,32(sp)
    800009f4:	6b02                	ld	s6,0(sp)
    800009f6:	a821                	j	80000a0e <uvmalloc+0x86>
      uvmdealloc(pagetable, a, oldsz);
    800009f8:	864e                	mv	a2,s3
    800009fa:	85ca                	mv	a1,s2
    800009fc:	8556                	mv	a0,s5
    800009fe:	00000097          	auipc	ra,0x0
    80000a02:	f42080e7          	jalr	-190(ra) # 80000940 <uvmdealloc>
      return 0;
    80000a06:	4501                	li	a0,0
    80000a08:	74a2                	ld	s1,40(sp)
    80000a0a:	7902                	ld	s2,32(sp)
    80000a0c:	6b02                	ld	s6,0(sp)
}
    80000a0e:	70e2                	ld	ra,56(sp)
    80000a10:	7442                	ld	s0,48(sp)
    80000a12:	69e2                	ld	s3,24(sp)
    80000a14:	6a42                	ld	s4,16(sp)
    80000a16:	6aa2                	ld	s5,8(sp)
    80000a18:	6121                	addi	sp,sp,64
    80000a1a:	8082                	ret
      kfree(mem);
    80000a1c:	8526                	mv	a0,s1
    80000a1e:	fffff097          	auipc	ra,0xfffff
    80000a22:	650080e7          	jalr	1616(ra) # 8000006e <kfree>
      uvmdealloc(pagetable, a, oldsz);
    80000a26:	864e                	mv	a2,s3
    80000a28:	85ca                	mv	a1,s2
    80000a2a:	8556                	mv	a0,s5
    80000a2c:	00000097          	auipc	ra,0x0
    80000a30:	f14080e7          	jalr	-236(ra) # 80000940 <uvmdealloc>
      return 0;
    80000a34:	4501                	li	a0,0
    80000a36:	74a2                	ld	s1,40(sp)
    80000a38:	7902                	ld	s2,32(sp)
    80000a3a:	6b02                	ld	s6,0(sp)
    80000a3c:	bfc9                	j	80000a0e <uvmalloc+0x86>
  if (newsz < oldsz) return oldsz;
    80000a3e:	852e                	mv	a0,a1
}
    80000a40:	8082                	ret
  return newsz;
    80000a42:	8532                	mv	a0,a2
    80000a44:	b7e9                	j	80000a0e <uvmalloc+0x86>

0000000080000a46 <freewalk>:

// Recursively free page-table pages.
// All leaf mappings must already have been removed.
void freewalk(pagetable_t pagetable) {
    80000a46:	7179                	addi	sp,sp,-48
    80000a48:	f406                	sd	ra,40(sp)
    80000a4a:	f022                	sd	s0,32(sp)
    80000a4c:	ec26                	sd	s1,24(sp)
    80000a4e:	e84a                	sd	s2,16(sp)
    80000a50:	e44e                	sd	s3,8(sp)
    80000a52:	e052                	sd	s4,0(sp)
    80000a54:	1800                	addi	s0,sp,48
    80000a56:	8a2a                	mv	s4,a0
  // there are 2^9 = 512 PTEs in a page table.
  for (int i = 0; i < 512; i++) {
    80000a58:	84aa                	mv	s1,a0
    80000a5a:	6905                	lui	s2,0x1
    80000a5c:	992a                	add	s2,s2,a0
    pte_t pte = pagetable[i];
    if ((pte & PTE_V) && (pte & (PTE_R | PTE_W | PTE_X)) == 0) {
    80000a5e:	4985                	li	s3,1
    80000a60:	a829                	j	80000a7a <freewalk+0x34>
      // this PTE points to a lower-level page table.
      uint64 child = PTE2PA(pte);
    80000a62:	83a9                	srli	a5,a5,0xa
      freewalk((pagetable_t)child);
    80000a64:	00c79513          	slli	a0,a5,0xc
    80000a68:	00000097          	auipc	ra,0x0
    80000a6c:	fde080e7          	jalr	-34(ra) # 80000a46 <freewalk>
      pagetable[i] = 0;
    80000a70:	0004b023          	sd	zero,0(s1)
  for (int i = 0; i < 512; i++) {
    80000a74:	04a1                	addi	s1,s1,8
    80000a76:	03248163          	beq	s1,s2,80000a98 <freewalk+0x52>
    pte_t pte = pagetable[i];
    80000a7a:	609c                	ld	a5,0(s1)
    if ((pte & PTE_V) && (pte & (PTE_R | PTE_W | PTE_X)) == 0) {
    80000a7c:	00f7f713          	andi	a4,a5,15
    80000a80:	ff3701e3          	beq	a4,s3,80000a62 <freewalk+0x1c>
    } else if (pte & PTE_V) {
    80000a84:	8b85                	andi	a5,a5,1
    80000a86:	d7fd                	beqz	a5,80000a74 <freewalk+0x2e>
      panic("freewalk: leaf");
    80000a88:	00007517          	auipc	a0,0x7
    80000a8c:	6b850513          	addi	a0,a0,1720 # 80008140 <etext+0x140>
    80000a90:	00005097          	auipc	ra,0x5
    80000a94:	5f2080e7          	jalr	1522(ra) # 80006082 <panic>
    }
  }
  kfree((void *)pagetable);
    80000a98:	8552                	mv	a0,s4
    80000a9a:	fffff097          	auipc	ra,0xfffff
    80000a9e:	5d4080e7          	jalr	1492(ra) # 8000006e <kfree>
}
    80000aa2:	70a2                	ld	ra,40(sp)
    80000aa4:	7402                	ld	s0,32(sp)
    80000aa6:	64e2                	ld	s1,24(sp)
    80000aa8:	6942                	ld	s2,16(sp)
    80000aaa:	69a2                	ld	s3,8(sp)
    80000aac:	6a02                	ld	s4,0(sp)
    80000aae:	6145                	addi	sp,sp,48
    80000ab0:	8082                	ret

0000000080000ab2 <uvmfree>:

// Free user memory pages,
// then free page-table pages.
void uvmfree(pagetable_t pagetable, uint64 sz) {
    80000ab2:	1101                	addi	sp,sp,-32
    80000ab4:	ec06                	sd	ra,24(sp)
    80000ab6:	e822                	sd	s0,16(sp)
    80000ab8:	e426                	sd	s1,8(sp)
    80000aba:	1000                	addi	s0,sp,32
    80000abc:	84aa                	mv	s1,a0
  if (sz > 0) uvmunmap(pagetable, 0, PGROUNDUP(sz) / PGSIZE, 1);
    80000abe:	e999                	bnez	a1,80000ad4 <uvmfree+0x22>
  freewalk(pagetable);
    80000ac0:	8526                	mv	a0,s1
    80000ac2:	00000097          	auipc	ra,0x0
    80000ac6:	f84080e7          	jalr	-124(ra) # 80000a46 <freewalk>
}
    80000aca:	60e2                	ld	ra,24(sp)
    80000acc:	6442                	ld	s0,16(sp)
    80000ace:	64a2                	ld	s1,8(sp)
    80000ad0:	6105                	addi	sp,sp,32
    80000ad2:	8082                	ret
  if (sz > 0) uvmunmap(pagetable, 0, PGROUNDUP(sz) / PGSIZE, 1);
    80000ad4:	6785                	lui	a5,0x1
    80000ad6:	17fd                	addi	a5,a5,-1 # fff <_entry-0x7ffff001>
    80000ad8:	95be                	add	a1,a1,a5
    80000ada:	4685                	li	a3,1
    80000adc:	00c5d613          	srli	a2,a1,0xc
    80000ae0:	4581                	li	a1,0
    80000ae2:	00000097          	auipc	ra,0x0
    80000ae6:	cea080e7          	jalr	-790(ra) # 800007cc <uvmunmap>
    80000aea:	bfd9                	j	80000ac0 <uvmfree+0xe>

0000000080000aec <uvmcopy>:
// its memory into a child's page table.
// Copies both the page table and the
// physical memory.
// returns 0 on success, -1 on failure.
// frees any allocated pages on failure.
int uvmcopy(pagetable_t old, pagetable_t new, uint64 sz) {
    80000aec:	715d                	addi	sp,sp,-80
    80000aee:	e486                	sd	ra,72(sp)
    80000af0:	e0a2                	sd	s0,64(sp)
    80000af2:	e45e                	sd	s7,8(sp)
    80000af4:	0880                	addi	s0,sp,80
  pte_t *pte;
  uint64 pa, i;
  uint flags;
  // char *mem;

  for (i = 0; i < sz; i += PGSIZE) {
    80000af6:	ca79                	beqz	a2,80000bcc <uvmcopy+0xe0>
    80000af8:	fc26                	sd	s1,56(sp)
    80000afa:	f84a                	sd	s2,48(sp)
    80000afc:	f44e                	sd	s3,40(sp)
    80000afe:	f052                	sd	s4,32(sp)
    80000b00:	ec56                	sd	s5,24(sp)
    80000b02:	e85a                	sd	s6,16(sp)
    80000b04:	8aaa                	mv	s5,a0
    80000b06:	8a2e                	mv	s4,a1
    80000b08:	89b2                	mv	s3,a2
    80000b0a:	4901                	li	s2,0
    // memmove(mem, (char *)pa, PGSIZE);
    if (mappages(new, i, PGSIZE, pa, flags) != 0) {
      // kfree(mem);
      goto err;
    }
    change_and_get_ref(P_IND(pa), 1);
    80000b0c:	80000b37          	lui	s6,0x80000
    80000b10:	a8a9                	j	80000b6a <uvmcopy+0x7e>
    if ((pte = walk(old, i, 0)) == 0) panic("uvmcopy: pte should exist");
    80000b12:	00007517          	auipc	a0,0x7
    80000b16:	63e50513          	addi	a0,a0,1598 # 80008150 <etext+0x150>
    80000b1a:	00005097          	auipc	ra,0x5
    80000b1e:	568080e7          	jalr	1384(ra) # 80006082 <panic>
    if ((*pte & PTE_V) == 0) panic("uvmcopy: page not present");
    80000b22:	00007517          	auipc	a0,0x7
    80000b26:	64e50513          	addi	a0,a0,1614 # 80008170 <etext+0x170>
    80000b2a:	00005097          	auipc	ra,0x5
    80000b2e:	558080e7          	jalr	1368(ra) # 80006082 <panic>
    pa = PTE2PA(*pte);
    80000b32:	6118                	ld	a4,0(a0)
    80000b34:	00a75493          	srli	s1,a4,0xa
    80000b38:	04b2                	slli	s1,s1,0xc
    if (mappages(new, i, PGSIZE, pa, flags) != 0) {
    80000b3a:	3ff77713          	andi	a4,a4,1023
    80000b3e:	86a6                	mv	a3,s1
    80000b40:	6605                	lui	a2,0x1
    80000b42:	85ca                	mv	a1,s2
    80000b44:	8552                	mv	a0,s4
    80000b46:	00000097          	auipc	ra,0x0
    80000b4a:	a9c080e7          	jalr	-1380(ra) # 800005e2 <mappages>
    80000b4e:	8baa                	mv	s7,a0
    80000b50:	e129                	bnez	a0,80000b92 <uvmcopy+0xa6>
    change_and_get_ref(P_IND(pa), 1);
    80000b52:	94da                	add	s1,s1,s6
    80000b54:	4585                	li	a1,1
    80000b56:	00c4d513          	srli	a0,s1,0xc
    80000b5a:	fffff097          	auipc	ra,0xfffff
    80000b5e:	4c2080e7          	jalr	1218(ra) # 8000001c <change_and_get_ref>
  for (i = 0; i < sz; i += PGSIZE) {
    80000b62:	6785                	lui	a5,0x1
    80000b64:	993e                	add	s2,s2,a5
    80000b66:	05397c63          	bgeu	s2,s3,80000bbe <uvmcopy+0xd2>
    if ((pte = walk(old, i, 0)) == 0) panic("uvmcopy: pte should exist");
    80000b6a:	4601                	li	a2,0
    80000b6c:	85ca                	mv	a1,s2
    80000b6e:	8556                	mv	a0,s5
    80000b70:	00000097          	auipc	ra,0x0
    80000b74:	98a080e7          	jalr	-1654(ra) # 800004fa <walk>
    80000b78:	dd49                	beqz	a0,80000b12 <uvmcopy+0x26>
    if ((*pte & PTE_V) == 0) panic("uvmcopy: page not present");
    80000b7a:	611c                	ld	a5,0(a0)
    80000b7c:	0017f713          	andi	a4,a5,1
    80000b80:	d34d                	beqz	a4,80000b22 <uvmcopy+0x36>
    if (*pte & PTE_W) {
    80000b82:	0047f713          	andi	a4,a5,4
    80000b86:	d755                	beqz	a4,80000b32 <uvmcopy+0x46>
      *pte &= (~PTE_W);
    80000b88:	9bed                	andi	a5,a5,-5
      *pte |= PTE_C;
    80000b8a:	1007e793          	ori	a5,a5,256
    80000b8e:	e11c                	sd	a5,0(a0)
    80000b90:	b74d                	j	80000b32 <uvmcopy+0x46>
  }
  return 0;

err:
  uvmunmap(new, 0, i / PGSIZE, 1);
    80000b92:	4685                	li	a3,1
    80000b94:	00c95613          	srli	a2,s2,0xc
    80000b98:	4581                	li	a1,0
    80000b9a:	8552                	mv	a0,s4
    80000b9c:	00000097          	auipc	ra,0x0
    80000ba0:	c30080e7          	jalr	-976(ra) # 800007cc <uvmunmap>
  return -1;
    80000ba4:	5bfd                	li	s7,-1
    80000ba6:	74e2                	ld	s1,56(sp)
    80000ba8:	7942                	ld	s2,48(sp)
    80000baa:	79a2                	ld	s3,40(sp)
    80000bac:	7a02                	ld	s4,32(sp)
    80000bae:	6ae2                	ld	s5,24(sp)
    80000bb0:	6b42                	ld	s6,16(sp)
}
    80000bb2:	855e                	mv	a0,s7
    80000bb4:	60a6                	ld	ra,72(sp)
    80000bb6:	6406                	ld	s0,64(sp)
    80000bb8:	6ba2                	ld	s7,8(sp)
    80000bba:	6161                	addi	sp,sp,80
    80000bbc:	8082                	ret
    80000bbe:	74e2                	ld	s1,56(sp)
    80000bc0:	7942                	ld	s2,48(sp)
    80000bc2:	79a2                	ld	s3,40(sp)
    80000bc4:	7a02                	ld	s4,32(sp)
    80000bc6:	6ae2                	ld	s5,24(sp)
    80000bc8:	6b42                	ld	s6,16(sp)
    80000bca:	b7e5                	j	80000bb2 <uvmcopy+0xc6>
  return 0;
    80000bcc:	4b81                	li	s7,0
    80000bce:	b7d5                	j	80000bb2 <uvmcopy+0xc6>

0000000080000bd0 <uvmclear>:

// mark a PTE invalid for user access.
// used by exec for the user stack guard page.
void uvmclear(pagetable_t pagetable, uint64 va) {
    80000bd0:	1141                	addi	sp,sp,-16
    80000bd2:	e406                	sd	ra,8(sp)
    80000bd4:	e022                	sd	s0,0(sp)
    80000bd6:	0800                	addi	s0,sp,16
  pte_t *pte;

  pte = walk(pagetable, va, 0);
    80000bd8:	4601                	li	a2,0
    80000bda:	00000097          	auipc	ra,0x0
    80000bde:	920080e7          	jalr	-1760(ra) # 800004fa <walk>
  if (pte == 0) panic("uvmclear");
    80000be2:	c901                	beqz	a0,80000bf2 <uvmclear+0x22>
  *pte &= ~PTE_U;
    80000be4:	611c                	ld	a5,0(a0)
    80000be6:	9bbd                	andi	a5,a5,-17
    80000be8:	e11c                	sd	a5,0(a0)
}
    80000bea:	60a2                	ld	ra,8(sp)
    80000bec:	6402                	ld	s0,0(sp)
    80000bee:	0141                	addi	sp,sp,16
    80000bf0:	8082                	ret
  if (pte == 0) panic("uvmclear");
    80000bf2:	00007517          	auipc	a0,0x7
    80000bf6:	59e50513          	addi	a0,a0,1438 # 80008190 <etext+0x190>
    80000bfa:	00005097          	auipc	ra,0x5
    80000bfe:	488080e7          	jalr	1160(ra) # 80006082 <panic>

0000000080000c02 <copyout>:
// Return 0 on success, -1 on error.
int copyout(pagetable_t pagetable, uint64 dstva, char *src, uint64 len) {
  uint64 n, va0, pa0;
  pte_t *pte;

  while (len > 0) {
    80000c02:	c2d5                	beqz	a3,80000ca6 <copyout+0xa4>
int copyout(pagetable_t pagetable, uint64 dstva, char *src, uint64 len) {
    80000c04:	711d                	addi	sp,sp,-96
    80000c06:	ec86                	sd	ra,88(sp)
    80000c08:	e8a2                	sd	s0,80(sp)
    80000c0a:	e4a6                	sd	s1,72(sp)
    80000c0c:	fc4e                	sd	s3,56(sp)
    80000c0e:	f456                	sd	s5,40(sp)
    80000c10:	f05a                	sd	s6,32(sp)
    80000c12:	ec5e                	sd	s7,24(sp)
    80000c14:	1080                	addi	s0,sp,96
    80000c16:	8baa                	mv	s7,a0
    80000c18:	8aae                	mv	s5,a1
    80000c1a:	8b32                	mv	s6,a2
    80000c1c:	89b6                	mv	s3,a3
    va0 = PGROUNDDOWN(dstva);
    80000c1e:	74fd                	lui	s1,0xfffff
    80000c20:	8ced                	and	s1,s1,a1
    if (va0 >= MAXVA) return -1;
    80000c22:	57fd                	li	a5,-1
    80000c24:	83e9                	srli	a5,a5,0x1a
    80000c26:	0897e263          	bltu	a5,s1,80000caa <copyout+0xa8>
    80000c2a:	e0ca                	sd	s2,64(sp)
    80000c2c:	f852                	sd	s4,48(sp)
    80000c2e:	e862                	sd	s8,16(sp)
    80000c30:	e466                	sd	s9,8(sp)
    80000c32:	e06a                	sd	s10,0(sp)

    if (copyonwrite(pagetable, va0) == -1) {
    80000c34:	5c7d                	li	s8,-1
    80000c36:	6c85                	lui	s9,0x1
    if (va0 >= MAXVA) return -1;
    80000c38:	8d3e                	mv	s10,a5
    80000c3a:	a03d                	j	80000c68 <copyout+0x66>

    if ((pte = walk(pagetable, va0, 0)) == 0) {
      return -1;
    }

    pa0 = PTE2PA(*pte);
    80000c3c:	611c                	ld	a5,0(a0)
    80000c3e:	83a9                	srli	a5,a5,0xa
    80000c40:	07b2                	slli	a5,a5,0xc
    n = PGSIZE - (dstva - va0);
    if (n > len) n = len;
    memmove((void *)(pa0 + (dstva - va0)), src, n);
    80000c42:	409a8533          	sub	a0,s5,s1
    80000c46:	0009061b          	sext.w	a2,s2
    80000c4a:	85da                	mv	a1,s6
    80000c4c:	953e                	add	a0,a0,a5
    80000c4e:	fffff097          	auipc	ra,0xfffff
    80000c52:	62c080e7          	jalr	1580(ra) # 8000027a <memmove>

    len -= n;
    80000c56:	412989b3          	sub	s3,s3,s2
    src += n;
    80000c5a:	9b4a                	add	s6,s6,s2
  while (len > 0) {
    80000c5c:	02098e63          	beqz	s3,80000c98 <copyout+0x96>
    if (va0 >= MAXVA) return -1;
    80000c60:	054d6763          	bltu	s10,s4,80000cae <copyout+0xac>
    80000c64:	84d2                	mv	s1,s4
    80000c66:	8ad2                	mv	s5,s4
    if (copyonwrite(pagetable, va0) == -1) {
    80000c68:	85a6                	mv	a1,s1
    80000c6a:	855e                	mv	a0,s7
    80000c6c:	00001097          	auipc	ra,0x1
    80000c70:	0f2080e7          	jalr	242(ra) # 80001d5e <copyonwrite>
    80000c74:	05850b63          	beq	a0,s8,80000cca <copyout+0xc8>
    if ((pte = walk(pagetable, va0, 0)) == 0) {
    80000c78:	4601                	li	a2,0
    80000c7a:	85a6                	mv	a1,s1
    80000c7c:	855e                	mv	a0,s7
    80000c7e:	00000097          	auipc	ra,0x0
    80000c82:	87c080e7          	jalr	-1924(ra) # 800004fa <walk>
    80000c86:	c91d                	beqz	a0,80000cbc <copyout+0xba>
    n = PGSIZE - (dstva - va0);
    80000c88:	01948a33          	add	s4,s1,s9
    80000c8c:	415a0933          	sub	s2,s4,s5
    if (n > len) n = len;
    80000c90:	fb29f6e3          	bgeu	s3,s2,80000c3c <copyout+0x3a>
    80000c94:	894e                	mv	s2,s3
    80000c96:	b75d                	j	80000c3c <copyout+0x3a>
    dstva = va0 + PGSIZE;
  }
  return 0;
    80000c98:	4501                	li	a0,0
    80000c9a:	6906                	ld	s2,64(sp)
    80000c9c:	7a42                	ld	s4,48(sp)
    80000c9e:	6c42                	ld	s8,16(sp)
    80000ca0:	6ca2                	ld	s9,8(sp)
    80000ca2:	6d02                	ld	s10,0(sp)
    80000ca4:	a805                	j	80000cd4 <copyout+0xd2>
    80000ca6:	4501                	li	a0,0
}
    80000ca8:	8082                	ret
    if (va0 >= MAXVA) return -1;
    80000caa:	557d                	li	a0,-1
    80000cac:	a025                	j	80000cd4 <copyout+0xd2>
    80000cae:	557d                	li	a0,-1
    80000cb0:	6906                	ld	s2,64(sp)
    80000cb2:	7a42                	ld	s4,48(sp)
    80000cb4:	6c42                	ld	s8,16(sp)
    80000cb6:	6ca2                	ld	s9,8(sp)
    80000cb8:	6d02                	ld	s10,0(sp)
    80000cba:	a829                	j	80000cd4 <copyout+0xd2>
      return -1;
    80000cbc:	557d                	li	a0,-1
    80000cbe:	6906                	ld	s2,64(sp)
    80000cc0:	7a42                	ld	s4,48(sp)
    80000cc2:	6c42                	ld	s8,16(sp)
    80000cc4:	6ca2                	ld	s9,8(sp)
    80000cc6:	6d02                	ld	s10,0(sp)
    80000cc8:	a031                	j	80000cd4 <copyout+0xd2>
    80000cca:	6906                	ld	s2,64(sp)
    80000ccc:	7a42                	ld	s4,48(sp)
    80000cce:	6c42                	ld	s8,16(sp)
    80000cd0:	6ca2                	ld	s9,8(sp)
    80000cd2:	6d02                	ld	s10,0(sp)
}
    80000cd4:	60e6                	ld	ra,88(sp)
    80000cd6:	6446                	ld	s0,80(sp)
    80000cd8:	64a6                	ld	s1,72(sp)
    80000cda:	79e2                	ld	s3,56(sp)
    80000cdc:	7aa2                	ld	s5,40(sp)
    80000cde:	7b02                	ld	s6,32(sp)
    80000ce0:	6be2                	ld	s7,24(sp)
    80000ce2:	6125                	addi	sp,sp,96
    80000ce4:	8082                	ret

0000000080000ce6 <copyin>:
// Copy len bytes to dst from virtual address srcva in a given page table.
// Return 0 on success, -1 on error.
int copyin(pagetable_t pagetable, char *dst, uint64 srcva, uint64 len) {
  uint64 n, va0, pa0;

  while (len > 0) {
    80000ce6:	caa5                	beqz	a3,80000d56 <copyin+0x70>
int copyin(pagetable_t pagetable, char *dst, uint64 srcva, uint64 len) {
    80000ce8:	715d                	addi	sp,sp,-80
    80000cea:	e486                	sd	ra,72(sp)
    80000cec:	e0a2                	sd	s0,64(sp)
    80000cee:	fc26                	sd	s1,56(sp)
    80000cf0:	f84a                	sd	s2,48(sp)
    80000cf2:	f44e                	sd	s3,40(sp)
    80000cf4:	f052                	sd	s4,32(sp)
    80000cf6:	ec56                	sd	s5,24(sp)
    80000cf8:	e85a                	sd	s6,16(sp)
    80000cfa:	e45e                	sd	s7,8(sp)
    80000cfc:	e062                	sd	s8,0(sp)
    80000cfe:	0880                	addi	s0,sp,80
    80000d00:	8b2a                	mv	s6,a0
    80000d02:	8a2e                	mv	s4,a1
    80000d04:	8c32                	mv	s8,a2
    80000d06:	89b6                	mv	s3,a3
    va0 = PGROUNDDOWN(srcva);
    80000d08:	7bfd                	lui	s7,0xfffff
    pa0 = walkaddr(pagetable, va0);
    if (pa0 == 0) return -1;
    n = PGSIZE - (srcva - va0);
    80000d0a:	6a85                	lui	s5,0x1
    80000d0c:	a01d                	j	80000d32 <copyin+0x4c>
    if (n > len) n = len;
    memmove(dst, (void *)(pa0 + (srcva - va0)), n);
    80000d0e:	018505b3          	add	a1,a0,s8
    80000d12:	0004861b          	sext.w	a2,s1
    80000d16:	412585b3          	sub	a1,a1,s2
    80000d1a:	8552                	mv	a0,s4
    80000d1c:	fffff097          	auipc	ra,0xfffff
    80000d20:	55e080e7          	jalr	1374(ra) # 8000027a <memmove>

    len -= n;
    80000d24:	409989b3          	sub	s3,s3,s1
    dst += n;
    80000d28:	9a26                	add	s4,s4,s1
    srcva = va0 + PGSIZE;
    80000d2a:	01590c33          	add	s8,s2,s5
  while (len > 0) {
    80000d2e:	02098263          	beqz	s3,80000d52 <copyin+0x6c>
    va0 = PGROUNDDOWN(srcva);
    80000d32:	017c7933          	and	s2,s8,s7
    pa0 = walkaddr(pagetable, va0);
    80000d36:	85ca                	mv	a1,s2
    80000d38:	855a                	mv	a0,s6
    80000d3a:	00000097          	auipc	ra,0x0
    80000d3e:	866080e7          	jalr	-1946(ra) # 800005a0 <walkaddr>
    if (pa0 == 0) return -1;
    80000d42:	cd01                	beqz	a0,80000d5a <copyin+0x74>
    n = PGSIZE - (srcva - va0);
    80000d44:	418904b3          	sub	s1,s2,s8
    80000d48:	94d6                	add	s1,s1,s5
    if (n > len) n = len;
    80000d4a:	fc99f2e3          	bgeu	s3,s1,80000d0e <copyin+0x28>
    80000d4e:	84ce                	mv	s1,s3
    80000d50:	bf7d                	j	80000d0e <copyin+0x28>
  }
  return 0;
    80000d52:	4501                	li	a0,0
    80000d54:	a021                	j	80000d5c <copyin+0x76>
    80000d56:	4501                	li	a0,0
}
    80000d58:	8082                	ret
    if (pa0 == 0) return -1;
    80000d5a:	557d                	li	a0,-1
}
    80000d5c:	60a6                	ld	ra,72(sp)
    80000d5e:	6406                	ld	s0,64(sp)
    80000d60:	74e2                	ld	s1,56(sp)
    80000d62:	7942                	ld	s2,48(sp)
    80000d64:	79a2                	ld	s3,40(sp)
    80000d66:	7a02                	ld	s4,32(sp)
    80000d68:	6ae2                	ld	s5,24(sp)
    80000d6a:	6b42                	ld	s6,16(sp)
    80000d6c:	6ba2                	ld	s7,8(sp)
    80000d6e:	6c02                	ld	s8,0(sp)
    80000d70:	6161                	addi	sp,sp,80
    80000d72:	8082                	ret

0000000080000d74 <copyinstr>:
// Return 0 on success, -1 on error.
int copyinstr(pagetable_t pagetable, char *dst, uint64 srcva, uint64 max) {
  uint64 n, va0, pa0;
  int got_null = 0;

  while (got_null == 0 && max > 0) {
    80000d74:	cacd                	beqz	a3,80000e26 <copyinstr+0xb2>
int copyinstr(pagetable_t pagetable, char *dst, uint64 srcva, uint64 max) {
    80000d76:	715d                	addi	sp,sp,-80
    80000d78:	e486                	sd	ra,72(sp)
    80000d7a:	e0a2                	sd	s0,64(sp)
    80000d7c:	fc26                	sd	s1,56(sp)
    80000d7e:	f84a                	sd	s2,48(sp)
    80000d80:	f44e                	sd	s3,40(sp)
    80000d82:	f052                	sd	s4,32(sp)
    80000d84:	ec56                	sd	s5,24(sp)
    80000d86:	e85a                	sd	s6,16(sp)
    80000d88:	e45e                	sd	s7,8(sp)
    80000d8a:	0880                	addi	s0,sp,80
    80000d8c:	8a2a                	mv	s4,a0
    80000d8e:	8b2e                	mv	s6,a1
    80000d90:	8bb2                	mv	s7,a2
    80000d92:	8936                	mv	s2,a3
    va0 = PGROUNDDOWN(srcva);
    80000d94:	7afd                	lui	s5,0xfffff
    pa0 = walkaddr(pagetable, va0);
    if (pa0 == 0) return -1;
    n = PGSIZE - (srcva - va0);
    80000d96:	6985                	lui	s3,0x1
    80000d98:	a825                	j	80000dd0 <copyinstr+0x5c>
    if (n > max) n = max;

    char *p = (char *)(pa0 + (srcva - va0));
    while (n > 0) {
      if (*p == '\0') {
        *dst = '\0';
    80000d9a:	00078023          	sb	zero,0(a5) # 1000 <_entry-0x7ffff000>
    80000d9e:	4785                	li	a5,1
      dst++;
    }

    srcva = va0 + PGSIZE;
  }
  if (got_null) {
    80000da0:	37fd                	addiw	a5,a5,-1
    80000da2:	0007851b          	sext.w	a0,a5
    return 0;
  } else {
    return -1;
  }
}
    80000da6:	60a6                	ld	ra,72(sp)
    80000da8:	6406                	ld	s0,64(sp)
    80000daa:	74e2                	ld	s1,56(sp)
    80000dac:	7942                	ld	s2,48(sp)
    80000dae:	79a2                	ld	s3,40(sp)
    80000db0:	7a02                	ld	s4,32(sp)
    80000db2:	6ae2                	ld	s5,24(sp)
    80000db4:	6b42                	ld	s6,16(sp)
    80000db6:	6ba2                	ld	s7,8(sp)
    80000db8:	6161                	addi	sp,sp,80
    80000dba:	8082                	ret
    80000dbc:	fff90713          	addi	a4,s2,-1 # fff <_entry-0x7ffff001>
    80000dc0:	9742                	add	a4,a4,a6
      --max;
    80000dc2:	40b70933          	sub	s2,a4,a1
    srcva = va0 + PGSIZE;
    80000dc6:	01348bb3          	add	s7,s1,s3
  while (got_null == 0 && max > 0) {
    80000dca:	04e58663          	beq	a1,a4,80000e16 <copyinstr+0xa2>
int copyinstr(pagetable_t pagetable, char *dst, uint64 srcva, uint64 max) {
    80000dce:	8b3e                	mv	s6,a5
    va0 = PGROUNDDOWN(srcva);
    80000dd0:	015bf4b3          	and	s1,s7,s5
    pa0 = walkaddr(pagetable, va0);
    80000dd4:	85a6                	mv	a1,s1
    80000dd6:	8552                	mv	a0,s4
    80000dd8:	fffff097          	auipc	ra,0xfffff
    80000ddc:	7c8080e7          	jalr	1992(ra) # 800005a0 <walkaddr>
    if (pa0 == 0) return -1;
    80000de0:	cd0d                	beqz	a0,80000e1a <copyinstr+0xa6>
    n = PGSIZE - (srcva - va0);
    80000de2:	417486b3          	sub	a3,s1,s7
    80000de6:	96ce                	add	a3,a3,s3
    if (n > max) n = max;
    80000de8:	00d97363          	bgeu	s2,a3,80000dee <copyinstr+0x7a>
    80000dec:	86ca                	mv	a3,s2
    char *p = (char *)(pa0 + (srcva - va0));
    80000dee:	955e                	add	a0,a0,s7
    80000df0:	8d05                	sub	a0,a0,s1
    while (n > 0) {
    80000df2:	c695                	beqz	a3,80000e1e <copyinstr+0xaa>
    80000df4:	87da                	mv	a5,s6
    80000df6:	885a                	mv	a6,s6
      if (*p == '\0') {
    80000df8:	41650633          	sub	a2,a0,s6
    while (n > 0) {
    80000dfc:	96da                	add	a3,a3,s6
    80000dfe:	85be                	mv	a1,a5
      if (*p == '\0') {
    80000e00:	00f60733          	add	a4,a2,a5
    80000e04:	00074703          	lbu	a4,0(a4)
    80000e08:	db49                	beqz	a4,80000d9a <copyinstr+0x26>
        *dst = *p;
    80000e0a:	00e78023          	sb	a4,0(a5)
      dst++;
    80000e0e:	0785                	addi	a5,a5,1
    while (n > 0) {
    80000e10:	fed797e3          	bne	a5,a3,80000dfe <copyinstr+0x8a>
    80000e14:	b765                	j	80000dbc <copyinstr+0x48>
    80000e16:	4781                	li	a5,0
    80000e18:	b761                	j	80000da0 <copyinstr+0x2c>
    if (pa0 == 0) return -1;
    80000e1a:	557d                	li	a0,-1
    80000e1c:	b769                	j	80000da6 <copyinstr+0x32>
    srcva = va0 + PGSIZE;
    80000e1e:	6b85                	lui	s7,0x1
    80000e20:	9ba6                	add	s7,s7,s1
    80000e22:	87da                	mv	a5,s6
    80000e24:	b76d                	j	80000dce <copyinstr+0x5a>
  int got_null = 0;
    80000e26:	4781                	li	a5,0
  if (got_null) {
    80000e28:	37fd                	addiw	a5,a5,-1
    80000e2a:	0007851b          	sext.w	a0,a5
}
    80000e2e:	8082                	ret

0000000080000e30 <pte_print>:

void pte_print(pagetable_t pagetable, int level) {
    80000e30:	711d                	addi	sp,sp,-96
    80000e32:	ec86                	sd	ra,88(sp)
    80000e34:	e8a2                	sd	s0,80(sp)
    80000e36:	e4a6                	sd	s1,72(sp)
    80000e38:	e0ca                	sd	s2,64(sp)
    80000e3a:	fc4e                	sd	s3,56(sp)
    80000e3c:	f852                	sd	s4,48(sp)
    80000e3e:	f456                	sd	s5,40(sp)
    80000e40:	f05a                	sd	s6,32(sp)
    80000e42:	ec5e                	sd	s7,24(sp)
    80000e44:	e862                	sd	s8,16(sp)
    80000e46:	e466                	sd	s9,8(sp)
    80000e48:	e06a                	sd	s10,0(sp)
    80000e4a:	1080                	addi	s0,sp,96
    80000e4c:	8aae                	mv	s5,a1
  for (int i = 0; i < 512; i++) {
    80000e4e:	8a2a                	mv	s4,a0
    80000e50:	4981                	li	s3,0
    if (pte & PTE_V) {
      uint64 child = PTE2PA(pte);
      for (int j = 0; j < level; j++) {
        printf(" ..");
      }
      printf("%d: pte %p pa %p\n", i, pte, child);
    80000e52:	00007c17          	auipc	s8,0x7
    80000e56:	356c0c13          	addi	s8,s8,854 # 800081a8 <etext+0x1a8>
      for (int j = 0; j < level; j++) {
    80000e5a:	4c81                	li	s9,0
        printf(" ..");
    80000e5c:	00007b17          	auipc	s6,0x7
    80000e60:	344b0b13          	addi	s6,s6,836 # 800081a0 <etext+0x1a0>
  for (int i = 0; i < 512; i++) {
    80000e64:	20000b93          	li	s7,512
    80000e68:	a029                	j	80000e72 <pte_print+0x42>
    80000e6a:	2985                	addiw	s3,s3,1 # 1001 <_entry-0x7fffefff>
    80000e6c:	0a21                	addi	s4,s4,8
    80000e6e:	05798963          	beq	s3,s7,80000ec0 <pte_print+0x90>
    pte_t pte = pagetable[i];
    80000e72:	000a3903          	ld	s2,0(s4)
    if (pte & PTE_V) {
    80000e76:	00197793          	andi	a5,s2,1
    80000e7a:	dbe5                	beqz	a5,80000e6a <pte_print+0x3a>
      uint64 child = PTE2PA(pte);
    80000e7c:	00a95d13          	srli	s10,s2,0xa
    80000e80:	0d32                	slli	s10,s10,0xc
      for (int j = 0; j < level; j++) {
    80000e82:	01505b63          	blez	s5,80000e98 <pte_print+0x68>
    80000e86:	84e6                	mv	s1,s9
        printf(" ..");
    80000e88:	855a                	mv	a0,s6
    80000e8a:	00005097          	auipc	ra,0x5
    80000e8e:	242080e7          	jalr	578(ra) # 800060cc <printf>
      for (int j = 0; j < level; j++) {
    80000e92:	2485                	addiw	s1,s1,1 # fffffffffffff001 <end+0xffffffff7ffba7e1>
    80000e94:	fe9a9ae3          	bne	s5,s1,80000e88 <pte_print+0x58>
      printf("%d: pte %p pa %p\n", i, pte, child);
    80000e98:	86ea                	mv	a3,s10
    80000e9a:	864a                	mv	a2,s2
    80000e9c:	85ce                	mv	a1,s3
    80000e9e:	8562                	mv	a0,s8
    80000ea0:	00005097          	auipc	ra,0x5
    80000ea4:	22c080e7          	jalr	556(ra) # 800060cc <printf>
      if ((pte & (PTE_R | PTE_W | PTE_X)) == 0) {
    80000ea8:	00e97913          	andi	s2,s2,14
    80000eac:	fa091fe3          	bnez	s2,80000e6a <pte_print+0x3a>
        pte_print((pagetable_t)child, level + 1);
    80000eb0:	001a859b          	addiw	a1,s5,1 # fffffffffffff001 <end+0xffffffff7ffba7e1>
    80000eb4:	856a                	mv	a0,s10
    80000eb6:	00000097          	auipc	ra,0x0
    80000eba:	f7a080e7          	jalr	-134(ra) # 80000e30 <pte_print>
    80000ebe:	b775                	j	80000e6a <pte_print+0x3a>
      }
    }
  }
}
    80000ec0:	60e6                	ld	ra,88(sp)
    80000ec2:	6446                	ld	s0,80(sp)
    80000ec4:	64a6                	ld	s1,72(sp)
    80000ec6:	6906                	ld	s2,64(sp)
    80000ec8:	79e2                	ld	s3,56(sp)
    80000eca:	7a42                	ld	s4,48(sp)
    80000ecc:	7aa2                	ld	s5,40(sp)
    80000ece:	7b02                	ld	s6,32(sp)
    80000ed0:	6be2                	ld	s7,24(sp)
    80000ed2:	6c42                	ld	s8,16(sp)
    80000ed4:	6ca2                	ld	s9,8(sp)
    80000ed6:	6d02                	ld	s10,0(sp)
    80000ed8:	6125                	addi	sp,sp,96
    80000eda:	8082                	ret

0000000080000edc <vmprint>:

void vmprint(pagetable_t pagetable) {
    80000edc:	1101                	addi	sp,sp,-32
    80000ede:	ec06                	sd	ra,24(sp)
    80000ee0:	e822                	sd	s0,16(sp)
    80000ee2:	e426                	sd	s1,8(sp)
    80000ee4:	1000                	addi	s0,sp,32
    80000ee6:	84aa                	mv	s1,a0
  printf("page table %p\n", pagetable);
    80000ee8:	85aa                	mv	a1,a0
    80000eea:	00007517          	auipc	a0,0x7
    80000eee:	2d650513          	addi	a0,a0,726 # 800081c0 <etext+0x1c0>
    80000ef2:	00005097          	auipc	ra,0x5
    80000ef6:	1da080e7          	jalr	474(ra) # 800060cc <printf>
  pte_print(pagetable, 1);
    80000efa:	4585                	li	a1,1
    80000efc:	8526                	mv	a0,s1
    80000efe:	00000097          	auipc	ra,0x0
    80000f02:	f32080e7          	jalr	-206(ra) # 80000e30 <pte_print>
}
    80000f06:	60e2                	ld	ra,24(sp)
    80000f08:	6442                	ld	s0,16(sp)
    80000f0a:	64a2                	ld	s1,8(sp)
    80000f0c:	6105                	addi	sp,sp,32
    80000f0e:	8082                	ret

0000000080000f10 <proc_mapstacks>:
struct spinlock wait_lock;

// Allocate a page for each process's kernel stack.
// Map it high in memory, followed by an invalid
// guard page.
void proc_mapstacks(pagetable_t kpgtbl) {
    80000f10:	7139                	addi	sp,sp,-64
    80000f12:	fc06                	sd	ra,56(sp)
    80000f14:	f822                	sd	s0,48(sp)
    80000f16:	f426                	sd	s1,40(sp)
    80000f18:	f04a                	sd	s2,32(sp)
    80000f1a:	ec4e                	sd	s3,24(sp)
    80000f1c:	e852                	sd	s4,16(sp)
    80000f1e:	e456                	sd	s5,8(sp)
    80000f20:	e05a                	sd	s6,0(sp)
    80000f22:	0080                	addi	s0,sp,64
    80000f24:	8a2a                	mv	s4,a0
  struct proc *p;

  for (p = proc; p < &proc[NPROC]; p++) {
    80000f26:	0002b497          	auipc	s1,0x2b
    80000f2a:	8d248493          	addi	s1,s1,-1838 # 8002b7f8 <proc>
    char *pa = kalloc();
    if (pa == 0) panic("kalloc");
    uint64 va = KSTACK((int)(p - proc));
    80000f2e:	8b26                	mv	s6,s1
    80000f30:	04fa5937          	lui	s2,0x4fa5
    80000f34:	fa590913          	addi	s2,s2,-91 # 4fa4fa5 <_entry-0x7b05b05b>
    80000f38:	0932                	slli	s2,s2,0xc
    80000f3a:	fa590913          	addi	s2,s2,-91
    80000f3e:	0932                	slli	s2,s2,0xc
    80000f40:	fa590913          	addi	s2,s2,-91
    80000f44:	0932                	slli	s2,s2,0xc
    80000f46:	fa590913          	addi	s2,s2,-91
    80000f4a:	040009b7          	lui	s3,0x4000
    80000f4e:	19fd                	addi	s3,s3,-1 # 3ffffff <_entry-0x7c000001>
    80000f50:	09b2                	slli	s3,s3,0xc
  for (p = proc; p < &proc[NPROC]; p++) {
    80000f52:	00030a97          	auipc	s5,0x30
    80000f56:	2a6a8a93          	addi	s5,s5,678 # 800311f8 <tickslock>
    char *pa = kalloc();
    80000f5a:	fffff097          	auipc	ra,0xfffff
    80000f5e:	24a080e7          	jalr	586(ra) # 800001a4 <kalloc>
    80000f62:	862a                	mv	a2,a0
    if (pa == 0) panic("kalloc");
    80000f64:	c121                	beqz	a0,80000fa4 <proc_mapstacks+0x94>
    uint64 va = KSTACK((int)(p - proc));
    80000f66:	416485b3          	sub	a1,s1,s6
    80000f6a:	858d                	srai	a1,a1,0x3
    80000f6c:	032585b3          	mul	a1,a1,s2
    80000f70:	2585                	addiw	a1,a1,1
    80000f72:	00d5959b          	slliw	a1,a1,0xd
    kvmmap(kpgtbl, va, (uint64)pa, PGSIZE, PTE_R | PTE_W);
    80000f76:	4719                	li	a4,6
    80000f78:	6685                	lui	a3,0x1
    80000f7a:	40b985b3          	sub	a1,s3,a1
    80000f7e:	8552                	mv	a0,s4
    80000f80:	fffff097          	auipc	ra,0xfffff
    80000f84:	726080e7          	jalr	1830(ra) # 800006a6 <kvmmap>
  for (p = proc; p < &proc[NPROC]; p++) {
    80000f88:	16848493          	addi	s1,s1,360
    80000f8c:	fd5497e3          	bne	s1,s5,80000f5a <proc_mapstacks+0x4a>
  }
}
    80000f90:	70e2                	ld	ra,56(sp)
    80000f92:	7442                	ld	s0,48(sp)
    80000f94:	74a2                	ld	s1,40(sp)
    80000f96:	7902                	ld	s2,32(sp)
    80000f98:	69e2                	ld	s3,24(sp)
    80000f9a:	6a42                	ld	s4,16(sp)
    80000f9c:	6aa2                	ld	s5,8(sp)
    80000f9e:	6b02                	ld	s6,0(sp)
    80000fa0:	6121                	addi	sp,sp,64
    80000fa2:	8082                	ret
    if (pa == 0) panic("kalloc");
    80000fa4:	00007517          	auipc	a0,0x7
    80000fa8:	22c50513          	addi	a0,a0,556 # 800081d0 <etext+0x1d0>
    80000fac:	00005097          	auipc	ra,0x5
    80000fb0:	0d6080e7          	jalr	214(ra) # 80006082 <panic>

0000000080000fb4 <procinit>:

// initialize the proc table.
void procinit(void) {
    80000fb4:	7139                	addi	sp,sp,-64
    80000fb6:	fc06                	sd	ra,56(sp)
    80000fb8:	f822                	sd	s0,48(sp)
    80000fba:	f426                	sd	s1,40(sp)
    80000fbc:	f04a                	sd	s2,32(sp)
    80000fbe:	ec4e                	sd	s3,24(sp)
    80000fc0:	e852                	sd	s4,16(sp)
    80000fc2:	e456                	sd	s5,8(sp)
    80000fc4:	e05a                	sd	s6,0(sp)
    80000fc6:	0080                	addi	s0,sp,64
  struct proc *p;

  initlock(&pid_lock, "nextpid");
    80000fc8:	00007597          	auipc	a1,0x7
    80000fcc:	21058593          	addi	a1,a1,528 # 800081d8 <etext+0x1d8>
    80000fd0:	0002a517          	auipc	a0,0x2a
    80000fd4:	3f850513          	addi	a0,a0,1016 # 8002b3c8 <pid_lock>
    80000fd8:	00005097          	auipc	ra,0x5
    80000fdc:	594080e7          	jalr	1428(ra) # 8000656c <initlock>
  initlock(&wait_lock, "wait_lock");
    80000fe0:	00007597          	auipc	a1,0x7
    80000fe4:	20058593          	addi	a1,a1,512 # 800081e0 <etext+0x1e0>
    80000fe8:	0002a517          	auipc	a0,0x2a
    80000fec:	3f850513          	addi	a0,a0,1016 # 8002b3e0 <wait_lock>
    80000ff0:	00005097          	auipc	ra,0x5
    80000ff4:	57c080e7          	jalr	1404(ra) # 8000656c <initlock>
  for (p = proc; p < &proc[NPROC]; p++) {
    80000ff8:	0002b497          	auipc	s1,0x2b
    80000ffc:	80048493          	addi	s1,s1,-2048 # 8002b7f8 <proc>
    initlock(&p->lock, "proc");
    80001000:	00007b17          	auipc	s6,0x7
    80001004:	1f0b0b13          	addi	s6,s6,496 # 800081f0 <etext+0x1f0>
    p->state = UNUSED;
    p->kstack = KSTACK((int)(p - proc));
    80001008:	8aa6                	mv	s5,s1
    8000100a:	04fa5937          	lui	s2,0x4fa5
    8000100e:	fa590913          	addi	s2,s2,-91 # 4fa4fa5 <_entry-0x7b05b05b>
    80001012:	0932                	slli	s2,s2,0xc
    80001014:	fa590913          	addi	s2,s2,-91
    80001018:	0932                	slli	s2,s2,0xc
    8000101a:	fa590913          	addi	s2,s2,-91
    8000101e:	0932                	slli	s2,s2,0xc
    80001020:	fa590913          	addi	s2,s2,-91
    80001024:	040009b7          	lui	s3,0x4000
    80001028:	19fd                	addi	s3,s3,-1 # 3ffffff <_entry-0x7c000001>
    8000102a:	09b2                	slli	s3,s3,0xc
  for (p = proc; p < &proc[NPROC]; p++) {
    8000102c:	00030a17          	auipc	s4,0x30
    80001030:	1cca0a13          	addi	s4,s4,460 # 800311f8 <tickslock>
    initlock(&p->lock, "proc");
    80001034:	85da                	mv	a1,s6
    80001036:	8526                	mv	a0,s1
    80001038:	00005097          	auipc	ra,0x5
    8000103c:	534080e7          	jalr	1332(ra) # 8000656c <initlock>
    p->state = UNUSED;
    80001040:	0004ac23          	sw	zero,24(s1)
    p->kstack = KSTACK((int)(p - proc));
    80001044:	415487b3          	sub	a5,s1,s5
    80001048:	878d                	srai	a5,a5,0x3
    8000104a:	032787b3          	mul	a5,a5,s2
    8000104e:	2785                	addiw	a5,a5,1
    80001050:	00d7979b          	slliw	a5,a5,0xd
    80001054:	40f987b3          	sub	a5,s3,a5
    80001058:	e0bc                	sd	a5,64(s1)
  for (p = proc; p < &proc[NPROC]; p++) {
    8000105a:	16848493          	addi	s1,s1,360
    8000105e:	fd449be3          	bne	s1,s4,80001034 <procinit+0x80>
  }
}
    80001062:	70e2                	ld	ra,56(sp)
    80001064:	7442                	ld	s0,48(sp)
    80001066:	74a2                	ld	s1,40(sp)
    80001068:	7902                	ld	s2,32(sp)
    8000106a:	69e2                	ld	s3,24(sp)
    8000106c:	6a42                	ld	s4,16(sp)
    8000106e:	6aa2                	ld	s5,8(sp)
    80001070:	6b02                	ld	s6,0(sp)
    80001072:	6121                	addi	sp,sp,64
    80001074:	8082                	ret

0000000080001076 <cpuid>:

// Must be called with interrupts disabled,
// to prevent race with process being moved
// to a different CPU.
int cpuid() {
    80001076:	1141                	addi	sp,sp,-16
    80001078:	e422                	sd	s0,8(sp)
    8000107a:	0800                	addi	s0,sp,16
  asm volatile("mv %0, tp" : "=r"(x));
    8000107c:	8512                	mv	a0,tp
  int id = r_tp();
  return id;
}
    8000107e:	2501                	sext.w	a0,a0
    80001080:	6422                	ld	s0,8(sp)
    80001082:	0141                	addi	sp,sp,16
    80001084:	8082                	ret

0000000080001086 <mycpu>:

// Return this CPU's cpu struct.
// Interrupts must be disabled.
struct cpu *mycpu(void) {
    80001086:	1141                	addi	sp,sp,-16
    80001088:	e422                	sd	s0,8(sp)
    8000108a:	0800                	addi	s0,sp,16
    8000108c:	8792                	mv	a5,tp
  int id = cpuid();
  struct cpu *c = &cpus[id];
    8000108e:	2781                	sext.w	a5,a5
    80001090:	079e                	slli	a5,a5,0x7
  return c;
}
    80001092:	0002a517          	auipc	a0,0x2a
    80001096:	36650513          	addi	a0,a0,870 # 8002b3f8 <cpus>
    8000109a:	953e                	add	a0,a0,a5
    8000109c:	6422                	ld	s0,8(sp)
    8000109e:	0141                	addi	sp,sp,16
    800010a0:	8082                	ret

00000000800010a2 <myproc>:

// Return the current struct proc *, or zero if none.
struct proc *myproc(void) {
    800010a2:	1101                	addi	sp,sp,-32
    800010a4:	ec06                	sd	ra,24(sp)
    800010a6:	e822                	sd	s0,16(sp)
    800010a8:	e426                	sd	s1,8(sp)
    800010aa:	1000                	addi	s0,sp,32
  push_off();
    800010ac:	00005097          	auipc	ra,0x5
    800010b0:	504080e7          	jalr	1284(ra) # 800065b0 <push_off>
    800010b4:	8792                	mv	a5,tp
  struct cpu *c = mycpu();
  struct proc *p = c->proc;
    800010b6:	2781                	sext.w	a5,a5
    800010b8:	079e                	slli	a5,a5,0x7
    800010ba:	0002a717          	auipc	a4,0x2a
    800010be:	30e70713          	addi	a4,a4,782 # 8002b3c8 <pid_lock>
    800010c2:	97ba                	add	a5,a5,a4
    800010c4:	7b84                	ld	s1,48(a5)
  pop_off();
    800010c6:	00005097          	auipc	ra,0x5
    800010ca:	58a080e7          	jalr	1418(ra) # 80006650 <pop_off>
  return p;
}
    800010ce:	8526                	mv	a0,s1
    800010d0:	60e2                	ld	ra,24(sp)
    800010d2:	6442                	ld	s0,16(sp)
    800010d4:	64a2                	ld	s1,8(sp)
    800010d6:	6105                	addi	sp,sp,32
    800010d8:	8082                	ret

00000000800010da <forkret>:
  release(&p->lock);
}

// A fork child's very first scheduling by scheduler()
// will swtch to forkret.
void forkret(void) {
    800010da:	1141                	addi	sp,sp,-16
    800010dc:	e406                	sd	ra,8(sp)
    800010de:	e022                	sd	s0,0(sp)
    800010e0:	0800                	addi	s0,sp,16
  static int first = 1;

  // Still holding p->lock from scheduler.
  release(&myproc()->lock);
    800010e2:	00000097          	auipc	ra,0x0
    800010e6:	fc0080e7          	jalr	-64(ra) # 800010a2 <myproc>
    800010ea:	00005097          	auipc	ra,0x5
    800010ee:	5c6080e7          	jalr	1478(ra) # 800066b0 <release>

  if (first) {
    800010f2:	0000a797          	auipc	a5,0xa
    800010f6:	1fe7a783          	lw	a5,510(a5) # 8000b2f0 <first.1>
    800010fa:	eb89                	bnez	a5,8000110c <forkret+0x32>
    first = 0;
    // ensure other cores see first=0.
    __sync_synchronize();
  }

  usertrapret();
    800010fc:	00001097          	auipc	ra,0x1
    80001100:	d74080e7          	jalr	-652(ra) # 80001e70 <usertrapret>
}
    80001104:	60a2                	ld	ra,8(sp)
    80001106:	6402                	ld	s0,0(sp)
    80001108:	0141                	addi	sp,sp,16
    8000110a:	8082                	ret
    fsinit(ROOTDEV);
    8000110c:	4505                	li	a0,1
    8000110e:	00002097          	auipc	ra,0x2
    80001112:	b08080e7          	jalr	-1272(ra) # 80002c16 <fsinit>
    first = 0;
    80001116:	0000a797          	auipc	a5,0xa
    8000111a:	1c07ad23          	sw	zero,474(a5) # 8000b2f0 <first.1>
    __sync_synchronize();
    8000111e:	0330000f          	fence	rw,rw
    80001122:	bfe9                	j	800010fc <forkret+0x22>

0000000080001124 <allocpid>:
int allocpid() {
    80001124:	1101                	addi	sp,sp,-32
    80001126:	ec06                	sd	ra,24(sp)
    80001128:	e822                	sd	s0,16(sp)
    8000112a:	e426                	sd	s1,8(sp)
    8000112c:	e04a                	sd	s2,0(sp)
    8000112e:	1000                	addi	s0,sp,32
  acquire(&pid_lock);
    80001130:	0002a917          	auipc	s2,0x2a
    80001134:	29890913          	addi	s2,s2,664 # 8002b3c8 <pid_lock>
    80001138:	854a                	mv	a0,s2
    8000113a:	00005097          	auipc	ra,0x5
    8000113e:	4c2080e7          	jalr	1218(ra) # 800065fc <acquire>
  pid = nextpid;
    80001142:	0000a797          	auipc	a5,0xa
    80001146:	1b278793          	addi	a5,a5,434 # 8000b2f4 <nextpid>
    8000114a:	4384                	lw	s1,0(a5)
  nextpid = nextpid + 1;
    8000114c:	0014871b          	addiw	a4,s1,1
    80001150:	c398                	sw	a4,0(a5)
  release(&pid_lock);
    80001152:	854a                	mv	a0,s2
    80001154:	00005097          	auipc	ra,0x5
    80001158:	55c080e7          	jalr	1372(ra) # 800066b0 <release>
}
    8000115c:	8526                	mv	a0,s1
    8000115e:	60e2                	ld	ra,24(sp)
    80001160:	6442                	ld	s0,16(sp)
    80001162:	64a2                	ld	s1,8(sp)
    80001164:	6902                	ld	s2,0(sp)
    80001166:	6105                	addi	sp,sp,32
    80001168:	8082                	ret

000000008000116a <proc_pagetable>:
pagetable_t proc_pagetable(struct proc *p) {
    8000116a:	1101                	addi	sp,sp,-32
    8000116c:	ec06                	sd	ra,24(sp)
    8000116e:	e822                	sd	s0,16(sp)
    80001170:	e426                	sd	s1,8(sp)
    80001172:	e04a                	sd	s2,0(sp)
    80001174:	1000                	addi	s0,sp,32
    80001176:	892a                	mv	s2,a0
  pagetable = uvmcreate();
    80001178:	fffff097          	auipc	ra,0xfffff
    8000117c:	728080e7          	jalr	1832(ra) # 800008a0 <uvmcreate>
    80001180:	84aa                	mv	s1,a0
  if (pagetable == 0) return 0;
    80001182:	c121                	beqz	a0,800011c2 <proc_pagetable+0x58>
  if (mappages(pagetable, TRAMPOLINE, PGSIZE, (uint64)trampoline,
    80001184:	4729                	li	a4,10
    80001186:	00006697          	auipc	a3,0x6
    8000118a:	e7a68693          	addi	a3,a3,-390 # 80007000 <_trampoline>
    8000118e:	6605                	lui	a2,0x1
    80001190:	040005b7          	lui	a1,0x4000
    80001194:	15fd                	addi	a1,a1,-1 # 3ffffff <_entry-0x7c000001>
    80001196:	05b2                	slli	a1,a1,0xc
    80001198:	fffff097          	auipc	ra,0xfffff
    8000119c:	44a080e7          	jalr	1098(ra) # 800005e2 <mappages>
    800011a0:	02054863          	bltz	a0,800011d0 <proc_pagetable+0x66>
  if (mappages(pagetable, TRAPFRAME, PGSIZE, (uint64)(p->trapframe),
    800011a4:	4719                	li	a4,6
    800011a6:	05893683          	ld	a3,88(s2)
    800011aa:	6605                	lui	a2,0x1
    800011ac:	020005b7          	lui	a1,0x2000
    800011b0:	15fd                	addi	a1,a1,-1 # 1ffffff <_entry-0x7e000001>
    800011b2:	05b6                	slli	a1,a1,0xd
    800011b4:	8526                	mv	a0,s1
    800011b6:	fffff097          	auipc	ra,0xfffff
    800011ba:	42c080e7          	jalr	1068(ra) # 800005e2 <mappages>
    800011be:	02054163          	bltz	a0,800011e0 <proc_pagetable+0x76>
}
    800011c2:	8526                	mv	a0,s1
    800011c4:	60e2                	ld	ra,24(sp)
    800011c6:	6442                	ld	s0,16(sp)
    800011c8:	64a2                	ld	s1,8(sp)
    800011ca:	6902                	ld	s2,0(sp)
    800011cc:	6105                	addi	sp,sp,32
    800011ce:	8082                	ret
    uvmfree(pagetable, 0);
    800011d0:	4581                	li	a1,0
    800011d2:	8526                	mv	a0,s1
    800011d4:	00000097          	auipc	ra,0x0
    800011d8:	8de080e7          	jalr	-1826(ra) # 80000ab2 <uvmfree>
    return 0;
    800011dc:	4481                	li	s1,0
    800011de:	b7d5                	j	800011c2 <proc_pagetable+0x58>
    uvmunmap(pagetable, TRAMPOLINE, 1, 0);
    800011e0:	4681                	li	a3,0
    800011e2:	4605                	li	a2,1
    800011e4:	040005b7          	lui	a1,0x4000
    800011e8:	15fd                	addi	a1,a1,-1 # 3ffffff <_entry-0x7c000001>
    800011ea:	05b2                	slli	a1,a1,0xc
    800011ec:	8526                	mv	a0,s1
    800011ee:	fffff097          	auipc	ra,0xfffff
    800011f2:	5de080e7          	jalr	1502(ra) # 800007cc <uvmunmap>
    uvmfree(pagetable, 0);
    800011f6:	4581                	li	a1,0
    800011f8:	8526                	mv	a0,s1
    800011fa:	00000097          	auipc	ra,0x0
    800011fe:	8b8080e7          	jalr	-1864(ra) # 80000ab2 <uvmfree>
    return 0;
    80001202:	4481                	li	s1,0
    80001204:	bf7d                	j	800011c2 <proc_pagetable+0x58>

0000000080001206 <proc_freepagetable>:
void proc_freepagetable(pagetable_t pagetable, uint64 sz) {
    80001206:	1101                	addi	sp,sp,-32
    80001208:	ec06                	sd	ra,24(sp)
    8000120a:	e822                	sd	s0,16(sp)
    8000120c:	e426                	sd	s1,8(sp)
    8000120e:	e04a                	sd	s2,0(sp)
    80001210:	1000                	addi	s0,sp,32
    80001212:	84aa                	mv	s1,a0
    80001214:	892e                	mv	s2,a1
  uvmunmap(pagetable, TRAMPOLINE, 1, 0);
    80001216:	4681                	li	a3,0
    80001218:	4605                	li	a2,1
    8000121a:	040005b7          	lui	a1,0x4000
    8000121e:	15fd                	addi	a1,a1,-1 # 3ffffff <_entry-0x7c000001>
    80001220:	05b2                	slli	a1,a1,0xc
    80001222:	fffff097          	auipc	ra,0xfffff
    80001226:	5aa080e7          	jalr	1450(ra) # 800007cc <uvmunmap>
  uvmunmap(pagetable, TRAPFRAME, 1, 0);
    8000122a:	4681                	li	a3,0
    8000122c:	4605                	li	a2,1
    8000122e:	020005b7          	lui	a1,0x2000
    80001232:	15fd                	addi	a1,a1,-1 # 1ffffff <_entry-0x7e000001>
    80001234:	05b6                	slli	a1,a1,0xd
    80001236:	8526                	mv	a0,s1
    80001238:	fffff097          	auipc	ra,0xfffff
    8000123c:	594080e7          	jalr	1428(ra) # 800007cc <uvmunmap>
  uvmfree(pagetable, sz);
    80001240:	85ca                	mv	a1,s2
    80001242:	8526                	mv	a0,s1
    80001244:	00000097          	auipc	ra,0x0
    80001248:	86e080e7          	jalr	-1938(ra) # 80000ab2 <uvmfree>
}
    8000124c:	60e2                	ld	ra,24(sp)
    8000124e:	6442                	ld	s0,16(sp)
    80001250:	64a2                	ld	s1,8(sp)
    80001252:	6902                	ld	s2,0(sp)
    80001254:	6105                	addi	sp,sp,32
    80001256:	8082                	ret

0000000080001258 <freeproc>:
static void freeproc(struct proc *p) {
    80001258:	1101                	addi	sp,sp,-32
    8000125a:	ec06                	sd	ra,24(sp)
    8000125c:	e822                	sd	s0,16(sp)
    8000125e:	e426                	sd	s1,8(sp)
    80001260:	1000                	addi	s0,sp,32
    80001262:	84aa                	mv	s1,a0
  if (p->trapframe) kfree((void *)p->trapframe);
    80001264:	6d28                	ld	a0,88(a0)
    80001266:	c509                	beqz	a0,80001270 <freeproc+0x18>
    80001268:	fffff097          	auipc	ra,0xfffff
    8000126c:	e06080e7          	jalr	-506(ra) # 8000006e <kfree>
  p->trapframe = 0;
    80001270:	0404bc23          	sd	zero,88(s1)
  if (p->pagetable) proc_freepagetable(p->pagetable, p->sz);
    80001274:	68a8                	ld	a0,80(s1)
    80001276:	c511                	beqz	a0,80001282 <freeproc+0x2a>
    80001278:	64ac                	ld	a1,72(s1)
    8000127a:	00000097          	auipc	ra,0x0
    8000127e:	f8c080e7          	jalr	-116(ra) # 80001206 <proc_freepagetable>
  p->pagetable = 0;
    80001282:	0404b823          	sd	zero,80(s1)
  p->sz = 0;
    80001286:	0404b423          	sd	zero,72(s1)
  p->pid = 0;
    8000128a:	0204a823          	sw	zero,48(s1)
  p->parent = 0;
    8000128e:	0204bc23          	sd	zero,56(s1)
  p->name[0] = 0;
    80001292:	14048c23          	sb	zero,344(s1)
  p->chan = 0;
    80001296:	0204b023          	sd	zero,32(s1)
  p->killed = 0;
    8000129a:	0204a423          	sw	zero,40(s1)
  p->xstate = 0;
    8000129e:	0204a623          	sw	zero,44(s1)
  p->state = UNUSED;
    800012a2:	0004ac23          	sw	zero,24(s1)
}
    800012a6:	60e2                	ld	ra,24(sp)
    800012a8:	6442                	ld	s0,16(sp)
    800012aa:	64a2                	ld	s1,8(sp)
    800012ac:	6105                	addi	sp,sp,32
    800012ae:	8082                	ret

00000000800012b0 <allocproc>:
static struct proc *allocproc(void) {
    800012b0:	1101                	addi	sp,sp,-32
    800012b2:	ec06                	sd	ra,24(sp)
    800012b4:	e822                	sd	s0,16(sp)
    800012b6:	e426                	sd	s1,8(sp)
    800012b8:	e04a                	sd	s2,0(sp)
    800012ba:	1000                	addi	s0,sp,32
  for (p = proc; p < &proc[NPROC]; p++) {
    800012bc:	0002a497          	auipc	s1,0x2a
    800012c0:	53c48493          	addi	s1,s1,1340 # 8002b7f8 <proc>
    800012c4:	00030917          	auipc	s2,0x30
    800012c8:	f3490913          	addi	s2,s2,-204 # 800311f8 <tickslock>
    acquire(&p->lock);
    800012cc:	8526                	mv	a0,s1
    800012ce:	00005097          	auipc	ra,0x5
    800012d2:	32e080e7          	jalr	814(ra) # 800065fc <acquire>
    if (p->state == UNUSED) {
    800012d6:	4c9c                	lw	a5,24(s1)
    800012d8:	cf81                	beqz	a5,800012f0 <allocproc+0x40>
      release(&p->lock);
    800012da:	8526                	mv	a0,s1
    800012dc:	00005097          	auipc	ra,0x5
    800012e0:	3d4080e7          	jalr	980(ra) # 800066b0 <release>
  for (p = proc; p < &proc[NPROC]; p++) {
    800012e4:	16848493          	addi	s1,s1,360
    800012e8:	ff2492e3          	bne	s1,s2,800012cc <allocproc+0x1c>
  return 0;
    800012ec:	4481                	li	s1,0
    800012ee:	a889                	j	80001340 <allocproc+0x90>
  p->pid = allocpid();
    800012f0:	00000097          	auipc	ra,0x0
    800012f4:	e34080e7          	jalr	-460(ra) # 80001124 <allocpid>
    800012f8:	d888                	sw	a0,48(s1)
  p->state = USED;
    800012fa:	4785                	li	a5,1
    800012fc:	cc9c                	sw	a5,24(s1)
  if ((p->trapframe = (struct trapframe *)kalloc()) == 0) {
    800012fe:	fffff097          	auipc	ra,0xfffff
    80001302:	ea6080e7          	jalr	-346(ra) # 800001a4 <kalloc>
    80001306:	892a                	mv	s2,a0
    80001308:	eca8                	sd	a0,88(s1)
    8000130a:	c131                	beqz	a0,8000134e <allocproc+0x9e>
  p->pagetable = proc_pagetable(p);
    8000130c:	8526                	mv	a0,s1
    8000130e:	00000097          	auipc	ra,0x0
    80001312:	e5c080e7          	jalr	-420(ra) # 8000116a <proc_pagetable>
    80001316:	892a                	mv	s2,a0
    80001318:	e8a8                	sd	a0,80(s1)
  if (p->pagetable == 0) {
    8000131a:	c531                	beqz	a0,80001366 <allocproc+0xb6>
  memset(&p->context, 0, sizeof(p->context));
    8000131c:	07000613          	li	a2,112
    80001320:	4581                	li	a1,0
    80001322:	06048513          	addi	a0,s1,96
    80001326:	fffff097          	auipc	ra,0xfffff
    8000132a:	ef8080e7          	jalr	-264(ra) # 8000021e <memset>
  p->context.ra = (uint64)forkret;
    8000132e:	00000797          	auipc	a5,0x0
    80001332:	dac78793          	addi	a5,a5,-596 # 800010da <forkret>
    80001336:	f0bc                	sd	a5,96(s1)
  p->context.sp = p->kstack + PGSIZE;
    80001338:	60bc                	ld	a5,64(s1)
    8000133a:	6705                	lui	a4,0x1
    8000133c:	97ba                	add	a5,a5,a4
    8000133e:	f4bc                	sd	a5,104(s1)
}
    80001340:	8526                	mv	a0,s1
    80001342:	60e2                	ld	ra,24(sp)
    80001344:	6442                	ld	s0,16(sp)
    80001346:	64a2                	ld	s1,8(sp)
    80001348:	6902                	ld	s2,0(sp)
    8000134a:	6105                	addi	sp,sp,32
    8000134c:	8082                	ret
    freeproc(p);
    8000134e:	8526                	mv	a0,s1
    80001350:	00000097          	auipc	ra,0x0
    80001354:	f08080e7          	jalr	-248(ra) # 80001258 <freeproc>
    release(&p->lock);
    80001358:	8526                	mv	a0,s1
    8000135a:	00005097          	auipc	ra,0x5
    8000135e:	356080e7          	jalr	854(ra) # 800066b0 <release>
    return 0;
    80001362:	84ca                	mv	s1,s2
    80001364:	bff1                	j	80001340 <allocproc+0x90>
    freeproc(p);
    80001366:	8526                	mv	a0,s1
    80001368:	00000097          	auipc	ra,0x0
    8000136c:	ef0080e7          	jalr	-272(ra) # 80001258 <freeproc>
    release(&p->lock);
    80001370:	8526                	mv	a0,s1
    80001372:	00005097          	auipc	ra,0x5
    80001376:	33e080e7          	jalr	830(ra) # 800066b0 <release>
    return 0;
    8000137a:	84ca                	mv	s1,s2
    8000137c:	b7d1                	j	80001340 <allocproc+0x90>

000000008000137e <userinit>:
void userinit(void) {
    8000137e:	1101                	addi	sp,sp,-32
    80001380:	ec06                	sd	ra,24(sp)
    80001382:	e822                	sd	s0,16(sp)
    80001384:	e426                	sd	s1,8(sp)
    80001386:	1000                	addi	s0,sp,32
  p = allocproc();
    80001388:	00000097          	auipc	ra,0x0
    8000138c:	f28080e7          	jalr	-216(ra) # 800012b0 <allocproc>
    80001390:	84aa                	mv	s1,a0
  initproc = p;
    80001392:	0000a797          	auipc	a5,0xa
    80001396:	fca7bf23          	sd	a0,-34(a5) # 8000b370 <initproc>
  uvmfirst(p->pagetable, initcode, sizeof(initcode));
    8000139a:	03400613          	li	a2,52
    8000139e:	0000a597          	auipc	a1,0xa
    800013a2:	f6258593          	addi	a1,a1,-158 # 8000b300 <initcode>
    800013a6:	6928                	ld	a0,80(a0)
    800013a8:	fffff097          	auipc	ra,0xfffff
    800013ac:	526080e7          	jalr	1318(ra) # 800008ce <uvmfirst>
  p->sz = PGSIZE;
    800013b0:	6785                	lui	a5,0x1
    800013b2:	e4bc                	sd	a5,72(s1)
  p->trapframe->epc = 0;      // user program counter
    800013b4:	6cb8                	ld	a4,88(s1)
    800013b6:	00073c23          	sd	zero,24(a4) # 1018 <_entry-0x7fffefe8>
  p->trapframe->sp = PGSIZE;  // user stack pointer
    800013ba:	6cb8                	ld	a4,88(s1)
    800013bc:	fb1c                	sd	a5,48(a4)
  safestrcpy(p->name, "initcode", sizeof(p->name));
    800013be:	4641                	li	a2,16
    800013c0:	00007597          	auipc	a1,0x7
    800013c4:	e3858593          	addi	a1,a1,-456 # 800081f8 <etext+0x1f8>
    800013c8:	15848513          	addi	a0,s1,344
    800013cc:	fffff097          	auipc	ra,0xfffff
    800013d0:	f94080e7          	jalr	-108(ra) # 80000360 <safestrcpy>
  p->cwd = namei("/");
    800013d4:	00007517          	auipc	a0,0x7
    800013d8:	e3450513          	addi	a0,a0,-460 # 80008208 <etext+0x208>
    800013dc:	00002097          	auipc	ra,0x2
    800013e0:	28c080e7          	jalr	652(ra) # 80003668 <namei>
    800013e4:	14a4b823          	sd	a0,336(s1)
  p->state = RUNNABLE;
    800013e8:	478d                	li	a5,3
    800013ea:	cc9c                	sw	a5,24(s1)
  release(&p->lock);
    800013ec:	8526                	mv	a0,s1
    800013ee:	00005097          	auipc	ra,0x5
    800013f2:	2c2080e7          	jalr	706(ra) # 800066b0 <release>
}
    800013f6:	60e2                	ld	ra,24(sp)
    800013f8:	6442                	ld	s0,16(sp)
    800013fa:	64a2                	ld	s1,8(sp)
    800013fc:	6105                	addi	sp,sp,32
    800013fe:	8082                	ret

0000000080001400 <growproc>:
int growproc(int n) {
    80001400:	1101                	addi	sp,sp,-32
    80001402:	ec06                	sd	ra,24(sp)
    80001404:	e822                	sd	s0,16(sp)
    80001406:	e426                	sd	s1,8(sp)
    80001408:	e04a                	sd	s2,0(sp)
    8000140a:	1000                	addi	s0,sp,32
    8000140c:	892a                	mv	s2,a0
  struct proc *p = myproc();
    8000140e:	00000097          	auipc	ra,0x0
    80001412:	c94080e7          	jalr	-876(ra) # 800010a2 <myproc>
    80001416:	84aa                	mv	s1,a0
  sz = p->sz;
    80001418:	652c                	ld	a1,72(a0)
  if (n > 0) {
    8000141a:	01204c63          	bgtz	s2,80001432 <growproc+0x32>
  } else if (n < 0) {
    8000141e:	02094663          	bltz	s2,8000144a <growproc+0x4a>
  p->sz = sz;
    80001422:	e4ac                	sd	a1,72(s1)
  return 0;
    80001424:	4501                	li	a0,0
}
    80001426:	60e2                	ld	ra,24(sp)
    80001428:	6442                	ld	s0,16(sp)
    8000142a:	64a2                	ld	s1,8(sp)
    8000142c:	6902                	ld	s2,0(sp)
    8000142e:	6105                	addi	sp,sp,32
    80001430:	8082                	ret
    if ((sz = uvmalloc(p->pagetable, sz, sz + n, PTE_W)) == 0) {
    80001432:	4691                	li	a3,4
    80001434:	00b90633          	add	a2,s2,a1
    80001438:	6928                	ld	a0,80(a0)
    8000143a:	fffff097          	auipc	ra,0xfffff
    8000143e:	54e080e7          	jalr	1358(ra) # 80000988 <uvmalloc>
    80001442:	85aa                	mv	a1,a0
    80001444:	fd79                	bnez	a0,80001422 <growproc+0x22>
      return -1;
    80001446:	557d                	li	a0,-1
    80001448:	bff9                	j	80001426 <growproc+0x26>
    sz = uvmdealloc(p->pagetable, sz, sz + n);
    8000144a:	00b90633          	add	a2,s2,a1
    8000144e:	6928                	ld	a0,80(a0)
    80001450:	fffff097          	auipc	ra,0xfffff
    80001454:	4f0080e7          	jalr	1264(ra) # 80000940 <uvmdealloc>
    80001458:	85aa                	mv	a1,a0
    8000145a:	b7e1                	j	80001422 <growproc+0x22>

000000008000145c <fork>:
int fork(void) {
    8000145c:	7139                	addi	sp,sp,-64
    8000145e:	fc06                	sd	ra,56(sp)
    80001460:	f822                	sd	s0,48(sp)
    80001462:	f04a                	sd	s2,32(sp)
    80001464:	e456                	sd	s5,8(sp)
    80001466:	0080                	addi	s0,sp,64
  struct proc *p = myproc();
    80001468:	00000097          	auipc	ra,0x0
    8000146c:	c3a080e7          	jalr	-966(ra) # 800010a2 <myproc>
    80001470:	8aaa                	mv	s5,a0
  if ((np = allocproc()) == 0) {
    80001472:	00000097          	auipc	ra,0x0
    80001476:	e3e080e7          	jalr	-450(ra) # 800012b0 <allocproc>
    8000147a:	12050063          	beqz	a0,8000159a <fork+0x13e>
    8000147e:	e852                	sd	s4,16(sp)
    80001480:	8a2a                	mv	s4,a0
  if (uvmcopy(p->pagetable, np->pagetable, p->sz) < 0) {
    80001482:	048ab603          	ld	a2,72(s5)
    80001486:	692c                	ld	a1,80(a0)
    80001488:	050ab503          	ld	a0,80(s5)
    8000148c:	fffff097          	auipc	ra,0xfffff
    80001490:	660080e7          	jalr	1632(ra) # 80000aec <uvmcopy>
    80001494:	04054a63          	bltz	a0,800014e8 <fork+0x8c>
    80001498:	f426                	sd	s1,40(sp)
    8000149a:	ec4e                	sd	s3,24(sp)
  np->sz = p->sz;
    8000149c:	048ab783          	ld	a5,72(s5)
    800014a0:	04fa3423          	sd	a5,72(s4)
  *(np->trapframe) = *(p->trapframe);
    800014a4:	058ab683          	ld	a3,88(s5)
    800014a8:	87b6                	mv	a5,a3
    800014aa:	058a3703          	ld	a4,88(s4)
    800014ae:	12068693          	addi	a3,a3,288
    800014b2:	0007b803          	ld	a6,0(a5) # 1000 <_entry-0x7ffff000>
    800014b6:	6788                	ld	a0,8(a5)
    800014b8:	6b8c                	ld	a1,16(a5)
    800014ba:	6f90                	ld	a2,24(a5)
    800014bc:	01073023          	sd	a6,0(a4)
    800014c0:	e708                	sd	a0,8(a4)
    800014c2:	eb0c                	sd	a1,16(a4)
    800014c4:	ef10                	sd	a2,24(a4)
    800014c6:	02078793          	addi	a5,a5,32
    800014ca:	02070713          	addi	a4,a4,32
    800014ce:	fed792e3          	bne	a5,a3,800014b2 <fork+0x56>
  np->trapframe->a0 = 0;
    800014d2:	058a3783          	ld	a5,88(s4)
    800014d6:	0607b823          	sd	zero,112(a5)
  for (i = 0; i < NOFILE; i++)
    800014da:	0d0a8493          	addi	s1,s5,208
    800014de:	0d0a0913          	addi	s2,s4,208
    800014e2:	150a8993          	addi	s3,s5,336
    800014e6:	a015                	j	8000150a <fork+0xae>
    freeproc(np);
    800014e8:	8552                	mv	a0,s4
    800014ea:	00000097          	auipc	ra,0x0
    800014ee:	d6e080e7          	jalr	-658(ra) # 80001258 <freeproc>
    release(&np->lock);
    800014f2:	8552                	mv	a0,s4
    800014f4:	00005097          	auipc	ra,0x5
    800014f8:	1bc080e7          	jalr	444(ra) # 800066b0 <release>
    return -1;
    800014fc:	597d                	li	s2,-1
    800014fe:	6a42                	ld	s4,16(sp)
    80001500:	a071                	j	8000158c <fork+0x130>
  for (i = 0; i < NOFILE; i++)
    80001502:	04a1                	addi	s1,s1,8
    80001504:	0921                	addi	s2,s2,8
    80001506:	01348b63          	beq	s1,s3,8000151c <fork+0xc0>
    if (p->ofile[i]) np->ofile[i] = filedup(p->ofile[i]);
    8000150a:	6088                	ld	a0,0(s1)
    8000150c:	d97d                	beqz	a0,80001502 <fork+0xa6>
    8000150e:	00002097          	auipc	ra,0x2
    80001512:	7d2080e7          	jalr	2002(ra) # 80003ce0 <filedup>
    80001516:	00a93023          	sd	a0,0(s2)
    8000151a:	b7e5                	j	80001502 <fork+0xa6>
  np->cwd = idup(p->cwd);
    8000151c:	150ab503          	ld	a0,336(s5)
    80001520:	00002097          	auipc	ra,0x2
    80001524:	93c080e7          	jalr	-1732(ra) # 80002e5c <idup>
    80001528:	14aa3823          	sd	a0,336(s4)
  safestrcpy(np->name, p->name, sizeof(p->name));
    8000152c:	4641                	li	a2,16
    8000152e:	158a8593          	addi	a1,s5,344
    80001532:	158a0513          	addi	a0,s4,344
    80001536:	fffff097          	auipc	ra,0xfffff
    8000153a:	e2a080e7          	jalr	-470(ra) # 80000360 <safestrcpy>
  pid = np->pid;
    8000153e:	030a2903          	lw	s2,48(s4)
  release(&np->lock);
    80001542:	8552                	mv	a0,s4
    80001544:	00005097          	auipc	ra,0x5
    80001548:	16c080e7          	jalr	364(ra) # 800066b0 <release>
  acquire(&wait_lock);
    8000154c:	0002a497          	auipc	s1,0x2a
    80001550:	e9448493          	addi	s1,s1,-364 # 8002b3e0 <wait_lock>
    80001554:	8526                	mv	a0,s1
    80001556:	00005097          	auipc	ra,0x5
    8000155a:	0a6080e7          	jalr	166(ra) # 800065fc <acquire>
  np->parent = p;
    8000155e:	035a3c23          	sd	s5,56(s4)
  release(&wait_lock);
    80001562:	8526                	mv	a0,s1
    80001564:	00005097          	auipc	ra,0x5
    80001568:	14c080e7          	jalr	332(ra) # 800066b0 <release>
  acquire(&np->lock);
    8000156c:	8552                	mv	a0,s4
    8000156e:	00005097          	auipc	ra,0x5
    80001572:	08e080e7          	jalr	142(ra) # 800065fc <acquire>
  np->state = RUNNABLE;
    80001576:	478d                	li	a5,3
    80001578:	00fa2c23          	sw	a5,24(s4)
  release(&np->lock);
    8000157c:	8552                	mv	a0,s4
    8000157e:	00005097          	auipc	ra,0x5
    80001582:	132080e7          	jalr	306(ra) # 800066b0 <release>
  return pid;
    80001586:	74a2                	ld	s1,40(sp)
    80001588:	69e2                	ld	s3,24(sp)
    8000158a:	6a42                	ld	s4,16(sp)
}
    8000158c:	854a                	mv	a0,s2
    8000158e:	70e2                	ld	ra,56(sp)
    80001590:	7442                	ld	s0,48(sp)
    80001592:	7902                	ld	s2,32(sp)
    80001594:	6aa2                	ld	s5,8(sp)
    80001596:	6121                	addi	sp,sp,64
    80001598:	8082                	ret
    return -1;
    8000159a:	597d                	li	s2,-1
    8000159c:	bfc5                	j	8000158c <fork+0x130>

000000008000159e <scheduler>:
void scheduler(void) {
    8000159e:	7139                	addi	sp,sp,-64
    800015a0:	fc06                	sd	ra,56(sp)
    800015a2:	f822                	sd	s0,48(sp)
    800015a4:	f426                	sd	s1,40(sp)
    800015a6:	f04a                	sd	s2,32(sp)
    800015a8:	ec4e                	sd	s3,24(sp)
    800015aa:	e852                	sd	s4,16(sp)
    800015ac:	e456                	sd	s5,8(sp)
    800015ae:	e05a                	sd	s6,0(sp)
    800015b0:	0080                	addi	s0,sp,64
    800015b2:	8792                	mv	a5,tp
  int id = r_tp();
    800015b4:	2781                	sext.w	a5,a5
  c->proc = 0;
    800015b6:	00779a93          	slli	s5,a5,0x7
    800015ba:	0002a717          	auipc	a4,0x2a
    800015be:	e0e70713          	addi	a4,a4,-498 # 8002b3c8 <pid_lock>
    800015c2:	9756                	add	a4,a4,s5
    800015c4:	02073823          	sd	zero,48(a4)
        swtch(&c->context, &p->context);
    800015c8:	0002a717          	auipc	a4,0x2a
    800015cc:	e3870713          	addi	a4,a4,-456 # 8002b400 <cpus+0x8>
    800015d0:	9aba                	add	s5,s5,a4
      if (p->state == RUNNABLE) {
    800015d2:	498d                	li	s3,3
        p->state = RUNNING;
    800015d4:	4b11                	li	s6,4
        c->proc = p;
    800015d6:	079e                	slli	a5,a5,0x7
    800015d8:	0002aa17          	auipc	s4,0x2a
    800015dc:	df0a0a13          	addi	s4,s4,-528 # 8002b3c8 <pid_lock>
    800015e0:	9a3e                	add	s4,s4,a5
    for (p = proc; p < &proc[NPROC]; p++) {
    800015e2:	00030917          	auipc	s2,0x30
    800015e6:	c1690913          	addi	s2,s2,-1002 # 800311f8 <tickslock>
  asm volatile("csrr %0, sstatus" : "=r"(x));
    800015ea:	100027f3          	csrr	a5,sstatus
static inline void intr_on() { w_sstatus(r_sstatus() | SSTATUS_SIE); }
    800015ee:	0027e793          	ori	a5,a5,2
  asm volatile("csrw sstatus, %0" : : "r"(x));
    800015f2:	10079073          	csrw	sstatus,a5
    800015f6:	0002a497          	auipc	s1,0x2a
    800015fa:	20248493          	addi	s1,s1,514 # 8002b7f8 <proc>
    800015fe:	a811                	j	80001612 <scheduler+0x74>
      release(&p->lock);
    80001600:	8526                	mv	a0,s1
    80001602:	00005097          	auipc	ra,0x5
    80001606:	0ae080e7          	jalr	174(ra) # 800066b0 <release>
    for (p = proc; p < &proc[NPROC]; p++) {
    8000160a:	16848493          	addi	s1,s1,360
    8000160e:	fd248ee3          	beq	s1,s2,800015ea <scheduler+0x4c>
      acquire(&p->lock);
    80001612:	8526                	mv	a0,s1
    80001614:	00005097          	auipc	ra,0x5
    80001618:	fe8080e7          	jalr	-24(ra) # 800065fc <acquire>
      if (p->state == RUNNABLE) {
    8000161c:	4c9c                	lw	a5,24(s1)
    8000161e:	ff3791e3          	bne	a5,s3,80001600 <scheduler+0x62>
        p->state = RUNNING;
    80001622:	0164ac23          	sw	s6,24(s1)
        c->proc = p;
    80001626:	029a3823          	sd	s1,48(s4)
        swtch(&c->context, &p->context);
    8000162a:	06048593          	addi	a1,s1,96
    8000162e:	8556                	mv	a0,s5
    80001630:	00000097          	auipc	ra,0x0
    80001634:	684080e7          	jalr	1668(ra) # 80001cb4 <swtch>
        c->proc = 0;
    80001638:	020a3823          	sd	zero,48(s4)
    8000163c:	b7d1                	j	80001600 <scheduler+0x62>

000000008000163e <sched>:
void sched(void) {
    8000163e:	7179                	addi	sp,sp,-48
    80001640:	f406                	sd	ra,40(sp)
    80001642:	f022                	sd	s0,32(sp)
    80001644:	ec26                	sd	s1,24(sp)
    80001646:	e84a                	sd	s2,16(sp)
    80001648:	e44e                	sd	s3,8(sp)
    8000164a:	1800                	addi	s0,sp,48
  struct proc *p = myproc();
    8000164c:	00000097          	auipc	ra,0x0
    80001650:	a56080e7          	jalr	-1450(ra) # 800010a2 <myproc>
    80001654:	84aa                	mv	s1,a0
  if (!holding(&p->lock)) panic("sched p->lock");
    80001656:	00005097          	auipc	ra,0x5
    8000165a:	f2c080e7          	jalr	-212(ra) # 80006582 <holding>
    8000165e:	c93d                	beqz	a0,800016d4 <sched+0x96>
  asm volatile("mv %0, tp" : "=r"(x));
    80001660:	8792                	mv	a5,tp
  if (mycpu()->noff != 1) panic("sched locks");
    80001662:	2781                	sext.w	a5,a5
    80001664:	079e                	slli	a5,a5,0x7
    80001666:	0002a717          	auipc	a4,0x2a
    8000166a:	d6270713          	addi	a4,a4,-670 # 8002b3c8 <pid_lock>
    8000166e:	97ba                	add	a5,a5,a4
    80001670:	0a87a703          	lw	a4,168(a5)
    80001674:	4785                	li	a5,1
    80001676:	06f71763          	bne	a4,a5,800016e4 <sched+0xa6>
  if (p->state == RUNNING) panic("sched running");
    8000167a:	4c98                	lw	a4,24(s1)
    8000167c:	4791                	li	a5,4
    8000167e:	06f70b63          	beq	a4,a5,800016f4 <sched+0xb6>
  asm volatile("csrr %0, sstatus" : "=r"(x));
    80001682:	100027f3          	csrr	a5,sstatus
  return (x & SSTATUS_SIE) != 0;
    80001686:	8b89                	andi	a5,a5,2
  if (intr_get()) panic("sched interruptible");
    80001688:	efb5                	bnez	a5,80001704 <sched+0xc6>
  asm volatile("mv %0, tp" : "=r"(x));
    8000168a:	8792                	mv	a5,tp
  intena = mycpu()->intena;
    8000168c:	0002a917          	auipc	s2,0x2a
    80001690:	d3c90913          	addi	s2,s2,-708 # 8002b3c8 <pid_lock>
    80001694:	2781                	sext.w	a5,a5
    80001696:	079e                	slli	a5,a5,0x7
    80001698:	97ca                	add	a5,a5,s2
    8000169a:	0ac7a983          	lw	s3,172(a5)
    8000169e:	8792                	mv	a5,tp
  swtch(&p->context, &mycpu()->context);
    800016a0:	2781                	sext.w	a5,a5
    800016a2:	079e                	slli	a5,a5,0x7
    800016a4:	0002a597          	auipc	a1,0x2a
    800016a8:	d5c58593          	addi	a1,a1,-676 # 8002b400 <cpus+0x8>
    800016ac:	95be                	add	a1,a1,a5
    800016ae:	06048513          	addi	a0,s1,96
    800016b2:	00000097          	auipc	ra,0x0
    800016b6:	602080e7          	jalr	1538(ra) # 80001cb4 <swtch>
    800016ba:	8792                	mv	a5,tp
  mycpu()->intena = intena;
    800016bc:	2781                	sext.w	a5,a5
    800016be:	079e                	slli	a5,a5,0x7
    800016c0:	993e                	add	s2,s2,a5
    800016c2:	0b392623          	sw	s3,172(s2)
}
    800016c6:	70a2                	ld	ra,40(sp)
    800016c8:	7402                	ld	s0,32(sp)
    800016ca:	64e2                	ld	s1,24(sp)
    800016cc:	6942                	ld	s2,16(sp)
    800016ce:	69a2                	ld	s3,8(sp)
    800016d0:	6145                	addi	sp,sp,48
    800016d2:	8082                	ret
  if (!holding(&p->lock)) panic("sched p->lock");
    800016d4:	00007517          	auipc	a0,0x7
    800016d8:	b3c50513          	addi	a0,a0,-1220 # 80008210 <etext+0x210>
    800016dc:	00005097          	auipc	ra,0x5
    800016e0:	9a6080e7          	jalr	-1626(ra) # 80006082 <panic>
  if (mycpu()->noff != 1) panic("sched locks");
    800016e4:	00007517          	auipc	a0,0x7
    800016e8:	b3c50513          	addi	a0,a0,-1220 # 80008220 <etext+0x220>
    800016ec:	00005097          	auipc	ra,0x5
    800016f0:	996080e7          	jalr	-1642(ra) # 80006082 <panic>
  if (p->state == RUNNING) panic("sched running");
    800016f4:	00007517          	auipc	a0,0x7
    800016f8:	b3c50513          	addi	a0,a0,-1220 # 80008230 <etext+0x230>
    800016fc:	00005097          	auipc	ra,0x5
    80001700:	986080e7          	jalr	-1658(ra) # 80006082 <panic>
  if (intr_get()) panic("sched interruptible");
    80001704:	00007517          	auipc	a0,0x7
    80001708:	b3c50513          	addi	a0,a0,-1220 # 80008240 <etext+0x240>
    8000170c:	00005097          	auipc	ra,0x5
    80001710:	976080e7          	jalr	-1674(ra) # 80006082 <panic>

0000000080001714 <yield>:
void yield(void) {
    80001714:	1101                	addi	sp,sp,-32
    80001716:	ec06                	sd	ra,24(sp)
    80001718:	e822                	sd	s0,16(sp)
    8000171a:	e426                	sd	s1,8(sp)
    8000171c:	1000                	addi	s0,sp,32
  struct proc *p = myproc();
    8000171e:	00000097          	auipc	ra,0x0
    80001722:	984080e7          	jalr	-1660(ra) # 800010a2 <myproc>
    80001726:	84aa                	mv	s1,a0
  acquire(&p->lock);
    80001728:	00005097          	auipc	ra,0x5
    8000172c:	ed4080e7          	jalr	-300(ra) # 800065fc <acquire>
  p->state = RUNNABLE;
    80001730:	478d                	li	a5,3
    80001732:	cc9c                	sw	a5,24(s1)
  sched();
    80001734:	00000097          	auipc	ra,0x0
    80001738:	f0a080e7          	jalr	-246(ra) # 8000163e <sched>
  release(&p->lock);
    8000173c:	8526                	mv	a0,s1
    8000173e:	00005097          	auipc	ra,0x5
    80001742:	f72080e7          	jalr	-142(ra) # 800066b0 <release>
}
    80001746:	60e2                	ld	ra,24(sp)
    80001748:	6442                	ld	s0,16(sp)
    8000174a:	64a2                	ld	s1,8(sp)
    8000174c:	6105                	addi	sp,sp,32
    8000174e:	8082                	ret

0000000080001750 <sleep>:

// Atomically release lock and sleep on chan.
// Reacquires lock when awakened.
void sleep(void *chan, struct spinlock *lk) {
    80001750:	7179                	addi	sp,sp,-48
    80001752:	f406                	sd	ra,40(sp)
    80001754:	f022                	sd	s0,32(sp)
    80001756:	ec26                	sd	s1,24(sp)
    80001758:	e84a                	sd	s2,16(sp)
    8000175a:	e44e                	sd	s3,8(sp)
    8000175c:	1800                	addi	s0,sp,48
    8000175e:	89aa                	mv	s3,a0
    80001760:	892e                	mv	s2,a1
  struct proc *p = myproc();
    80001762:	00000097          	auipc	ra,0x0
    80001766:	940080e7          	jalr	-1728(ra) # 800010a2 <myproc>
    8000176a:	84aa                	mv	s1,a0
  // Once we hold p->lock, we can be
  // guaranteed that we won't miss any wakeup
  // (wakeup locks p->lock),
  // so it's okay to release lk.

  acquire(&p->lock);  // DOC: sleeplock1
    8000176c:	00005097          	auipc	ra,0x5
    80001770:	e90080e7          	jalr	-368(ra) # 800065fc <acquire>
  release(lk);
    80001774:	854a                	mv	a0,s2
    80001776:	00005097          	auipc	ra,0x5
    8000177a:	f3a080e7          	jalr	-198(ra) # 800066b0 <release>

  // Go to sleep.
  p->chan = chan;
    8000177e:	0334b023          	sd	s3,32(s1)
  p->state = SLEEPING;
    80001782:	4789                	li	a5,2
    80001784:	cc9c                	sw	a5,24(s1)

  sched();
    80001786:	00000097          	auipc	ra,0x0
    8000178a:	eb8080e7          	jalr	-328(ra) # 8000163e <sched>

  // Tidy up.
  p->chan = 0;
    8000178e:	0204b023          	sd	zero,32(s1)

  // Reacquire original lock.
  release(&p->lock);
    80001792:	8526                	mv	a0,s1
    80001794:	00005097          	auipc	ra,0x5
    80001798:	f1c080e7          	jalr	-228(ra) # 800066b0 <release>
  acquire(lk);
    8000179c:	854a                	mv	a0,s2
    8000179e:	00005097          	auipc	ra,0x5
    800017a2:	e5e080e7          	jalr	-418(ra) # 800065fc <acquire>
}
    800017a6:	70a2                	ld	ra,40(sp)
    800017a8:	7402                	ld	s0,32(sp)
    800017aa:	64e2                	ld	s1,24(sp)
    800017ac:	6942                	ld	s2,16(sp)
    800017ae:	69a2                	ld	s3,8(sp)
    800017b0:	6145                	addi	sp,sp,48
    800017b2:	8082                	ret

00000000800017b4 <wakeup>:

// Wake up all processes sleeping on chan.
// Must be called without any p->lock.
void wakeup(void *chan) {
    800017b4:	7139                	addi	sp,sp,-64
    800017b6:	fc06                	sd	ra,56(sp)
    800017b8:	f822                	sd	s0,48(sp)
    800017ba:	f426                	sd	s1,40(sp)
    800017bc:	f04a                	sd	s2,32(sp)
    800017be:	ec4e                	sd	s3,24(sp)
    800017c0:	e852                	sd	s4,16(sp)
    800017c2:	e456                	sd	s5,8(sp)
    800017c4:	0080                	addi	s0,sp,64
    800017c6:	8a2a                	mv	s4,a0
  struct proc *p;

  for (p = proc; p < &proc[NPROC]; p++) {
    800017c8:	0002a497          	auipc	s1,0x2a
    800017cc:	03048493          	addi	s1,s1,48 # 8002b7f8 <proc>
    if (p != myproc()) {
      acquire(&p->lock);
      if (p->state == SLEEPING && p->chan == chan) {
    800017d0:	4989                	li	s3,2
        p->state = RUNNABLE;
    800017d2:	4a8d                	li	s5,3
  for (p = proc; p < &proc[NPROC]; p++) {
    800017d4:	00030917          	auipc	s2,0x30
    800017d8:	a2490913          	addi	s2,s2,-1500 # 800311f8 <tickslock>
    800017dc:	a811                	j	800017f0 <wakeup+0x3c>
      }
      release(&p->lock);
    800017de:	8526                	mv	a0,s1
    800017e0:	00005097          	auipc	ra,0x5
    800017e4:	ed0080e7          	jalr	-304(ra) # 800066b0 <release>
  for (p = proc; p < &proc[NPROC]; p++) {
    800017e8:	16848493          	addi	s1,s1,360
    800017ec:	03248663          	beq	s1,s2,80001818 <wakeup+0x64>
    if (p != myproc()) {
    800017f0:	00000097          	auipc	ra,0x0
    800017f4:	8b2080e7          	jalr	-1870(ra) # 800010a2 <myproc>
    800017f8:	fea488e3          	beq	s1,a0,800017e8 <wakeup+0x34>
      acquire(&p->lock);
    800017fc:	8526                	mv	a0,s1
    800017fe:	00005097          	auipc	ra,0x5
    80001802:	dfe080e7          	jalr	-514(ra) # 800065fc <acquire>
      if (p->state == SLEEPING && p->chan == chan) {
    80001806:	4c9c                	lw	a5,24(s1)
    80001808:	fd379be3          	bne	a5,s3,800017de <wakeup+0x2a>
    8000180c:	709c                	ld	a5,32(s1)
    8000180e:	fd4798e3          	bne	a5,s4,800017de <wakeup+0x2a>
        p->state = RUNNABLE;
    80001812:	0154ac23          	sw	s5,24(s1)
    80001816:	b7e1                	j	800017de <wakeup+0x2a>
    }
  }
}
    80001818:	70e2                	ld	ra,56(sp)
    8000181a:	7442                	ld	s0,48(sp)
    8000181c:	74a2                	ld	s1,40(sp)
    8000181e:	7902                	ld	s2,32(sp)
    80001820:	69e2                	ld	s3,24(sp)
    80001822:	6a42                	ld	s4,16(sp)
    80001824:	6aa2                	ld	s5,8(sp)
    80001826:	6121                	addi	sp,sp,64
    80001828:	8082                	ret

000000008000182a <reparent>:
void reparent(struct proc *p) {
    8000182a:	7179                	addi	sp,sp,-48
    8000182c:	f406                	sd	ra,40(sp)
    8000182e:	f022                	sd	s0,32(sp)
    80001830:	ec26                	sd	s1,24(sp)
    80001832:	e84a                	sd	s2,16(sp)
    80001834:	e44e                	sd	s3,8(sp)
    80001836:	e052                	sd	s4,0(sp)
    80001838:	1800                	addi	s0,sp,48
    8000183a:	892a                	mv	s2,a0
  for (pp = proc; pp < &proc[NPROC]; pp++) {
    8000183c:	0002a497          	auipc	s1,0x2a
    80001840:	fbc48493          	addi	s1,s1,-68 # 8002b7f8 <proc>
      pp->parent = initproc;
    80001844:	0000aa17          	auipc	s4,0xa
    80001848:	b2ca0a13          	addi	s4,s4,-1236 # 8000b370 <initproc>
  for (pp = proc; pp < &proc[NPROC]; pp++) {
    8000184c:	00030997          	auipc	s3,0x30
    80001850:	9ac98993          	addi	s3,s3,-1620 # 800311f8 <tickslock>
    80001854:	a029                	j	8000185e <reparent+0x34>
    80001856:	16848493          	addi	s1,s1,360
    8000185a:	01348d63          	beq	s1,s3,80001874 <reparent+0x4a>
    if (pp->parent == p) {
    8000185e:	7c9c                	ld	a5,56(s1)
    80001860:	ff279be3          	bne	a5,s2,80001856 <reparent+0x2c>
      pp->parent = initproc;
    80001864:	000a3503          	ld	a0,0(s4)
    80001868:	fc88                	sd	a0,56(s1)
      wakeup(initproc);
    8000186a:	00000097          	auipc	ra,0x0
    8000186e:	f4a080e7          	jalr	-182(ra) # 800017b4 <wakeup>
    80001872:	b7d5                	j	80001856 <reparent+0x2c>
}
    80001874:	70a2                	ld	ra,40(sp)
    80001876:	7402                	ld	s0,32(sp)
    80001878:	64e2                	ld	s1,24(sp)
    8000187a:	6942                	ld	s2,16(sp)
    8000187c:	69a2                	ld	s3,8(sp)
    8000187e:	6a02                	ld	s4,0(sp)
    80001880:	6145                	addi	sp,sp,48
    80001882:	8082                	ret

0000000080001884 <exit>:
void exit(int status) {
    80001884:	7179                	addi	sp,sp,-48
    80001886:	f406                	sd	ra,40(sp)
    80001888:	f022                	sd	s0,32(sp)
    8000188a:	ec26                	sd	s1,24(sp)
    8000188c:	e84a                	sd	s2,16(sp)
    8000188e:	e44e                	sd	s3,8(sp)
    80001890:	e052                	sd	s4,0(sp)
    80001892:	1800                	addi	s0,sp,48
    80001894:	8a2a                	mv	s4,a0
  struct proc *p = myproc();
    80001896:	00000097          	auipc	ra,0x0
    8000189a:	80c080e7          	jalr	-2036(ra) # 800010a2 <myproc>
    8000189e:	89aa                	mv	s3,a0
  if (p == initproc) panic("init exiting");
    800018a0:	0000a797          	auipc	a5,0xa
    800018a4:	ad07b783          	ld	a5,-1328(a5) # 8000b370 <initproc>
    800018a8:	0d050493          	addi	s1,a0,208
    800018ac:	15050913          	addi	s2,a0,336
    800018b0:	02a79363          	bne	a5,a0,800018d6 <exit+0x52>
    800018b4:	00007517          	auipc	a0,0x7
    800018b8:	9a450513          	addi	a0,a0,-1628 # 80008258 <etext+0x258>
    800018bc:	00004097          	auipc	ra,0x4
    800018c0:	7c6080e7          	jalr	1990(ra) # 80006082 <panic>
      fileclose(f);
    800018c4:	00002097          	auipc	ra,0x2
    800018c8:	46e080e7          	jalr	1134(ra) # 80003d32 <fileclose>
      p->ofile[fd] = 0;
    800018cc:	0004b023          	sd	zero,0(s1)
  for (int fd = 0; fd < NOFILE; fd++) {
    800018d0:	04a1                	addi	s1,s1,8
    800018d2:	01248563          	beq	s1,s2,800018dc <exit+0x58>
    if (p->ofile[fd]) {
    800018d6:	6088                	ld	a0,0(s1)
    800018d8:	f575                	bnez	a0,800018c4 <exit+0x40>
    800018da:	bfdd                	j	800018d0 <exit+0x4c>
  begin_op();
    800018dc:	00002097          	auipc	ra,0x2
    800018e0:	f8c080e7          	jalr	-116(ra) # 80003868 <begin_op>
  iput(p->cwd);
    800018e4:	1509b503          	ld	a0,336(s3)
    800018e8:	00001097          	auipc	ra,0x1
    800018ec:	770080e7          	jalr	1904(ra) # 80003058 <iput>
  end_op();
    800018f0:	00002097          	auipc	ra,0x2
    800018f4:	ff2080e7          	jalr	-14(ra) # 800038e2 <end_op>
  p->cwd = 0;
    800018f8:	1409b823          	sd	zero,336(s3)
  acquire(&wait_lock);
    800018fc:	0002a497          	auipc	s1,0x2a
    80001900:	ae448493          	addi	s1,s1,-1308 # 8002b3e0 <wait_lock>
    80001904:	8526                	mv	a0,s1
    80001906:	00005097          	auipc	ra,0x5
    8000190a:	cf6080e7          	jalr	-778(ra) # 800065fc <acquire>
  reparent(p);
    8000190e:	854e                	mv	a0,s3
    80001910:	00000097          	auipc	ra,0x0
    80001914:	f1a080e7          	jalr	-230(ra) # 8000182a <reparent>
  wakeup(p->parent);
    80001918:	0389b503          	ld	a0,56(s3)
    8000191c:	00000097          	auipc	ra,0x0
    80001920:	e98080e7          	jalr	-360(ra) # 800017b4 <wakeup>
  acquire(&p->lock);
    80001924:	854e                	mv	a0,s3
    80001926:	00005097          	auipc	ra,0x5
    8000192a:	cd6080e7          	jalr	-810(ra) # 800065fc <acquire>
  p->xstate = status;
    8000192e:	0349a623          	sw	s4,44(s3)
  p->state = ZOMBIE;
    80001932:	4795                	li	a5,5
    80001934:	00f9ac23          	sw	a5,24(s3)
  release(&wait_lock);
    80001938:	8526                	mv	a0,s1
    8000193a:	00005097          	auipc	ra,0x5
    8000193e:	d76080e7          	jalr	-650(ra) # 800066b0 <release>
  sched();
    80001942:	00000097          	auipc	ra,0x0
    80001946:	cfc080e7          	jalr	-772(ra) # 8000163e <sched>
  panic("zombie exit");
    8000194a:	00007517          	auipc	a0,0x7
    8000194e:	91e50513          	addi	a0,a0,-1762 # 80008268 <etext+0x268>
    80001952:	00004097          	auipc	ra,0x4
    80001956:	730080e7          	jalr	1840(ra) # 80006082 <panic>

000000008000195a <kill>:

// Kill the process with the given pid.
// The victim won't exit until it tries to return
// to user space (see usertrap() in trap.c).
int kill(int pid) {
    8000195a:	7179                	addi	sp,sp,-48
    8000195c:	f406                	sd	ra,40(sp)
    8000195e:	f022                	sd	s0,32(sp)
    80001960:	ec26                	sd	s1,24(sp)
    80001962:	e84a                	sd	s2,16(sp)
    80001964:	e44e                	sd	s3,8(sp)
    80001966:	1800                	addi	s0,sp,48
    80001968:	892a                	mv	s2,a0
  struct proc *p;

  for (p = proc; p < &proc[NPROC]; p++) {
    8000196a:	0002a497          	auipc	s1,0x2a
    8000196e:	e8e48493          	addi	s1,s1,-370 # 8002b7f8 <proc>
    80001972:	00030997          	auipc	s3,0x30
    80001976:	88698993          	addi	s3,s3,-1914 # 800311f8 <tickslock>
    acquire(&p->lock);
    8000197a:	8526                	mv	a0,s1
    8000197c:	00005097          	auipc	ra,0x5
    80001980:	c80080e7          	jalr	-896(ra) # 800065fc <acquire>
    if (p->pid == pid) {
    80001984:	589c                	lw	a5,48(s1)
    80001986:	01278d63          	beq	a5,s2,800019a0 <kill+0x46>
        p->state = RUNNABLE;
      }
      release(&p->lock);
      return 0;
    }
    release(&p->lock);
    8000198a:	8526                	mv	a0,s1
    8000198c:	00005097          	auipc	ra,0x5
    80001990:	d24080e7          	jalr	-732(ra) # 800066b0 <release>
  for (p = proc; p < &proc[NPROC]; p++) {
    80001994:	16848493          	addi	s1,s1,360
    80001998:	ff3491e3          	bne	s1,s3,8000197a <kill+0x20>
  }
  return -1;
    8000199c:	557d                	li	a0,-1
    8000199e:	a829                	j	800019b8 <kill+0x5e>
      p->killed = 1;
    800019a0:	4785                	li	a5,1
    800019a2:	d49c                	sw	a5,40(s1)
      if (p->state == SLEEPING) {
    800019a4:	4c98                	lw	a4,24(s1)
    800019a6:	4789                	li	a5,2
    800019a8:	00f70f63          	beq	a4,a5,800019c6 <kill+0x6c>
      release(&p->lock);
    800019ac:	8526                	mv	a0,s1
    800019ae:	00005097          	auipc	ra,0x5
    800019b2:	d02080e7          	jalr	-766(ra) # 800066b0 <release>
      return 0;
    800019b6:	4501                	li	a0,0
}
    800019b8:	70a2                	ld	ra,40(sp)
    800019ba:	7402                	ld	s0,32(sp)
    800019bc:	64e2                	ld	s1,24(sp)
    800019be:	6942                	ld	s2,16(sp)
    800019c0:	69a2                	ld	s3,8(sp)
    800019c2:	6145                	addi	sp,sp,48
    800019c4:	8082                	ret
        p->state = RUNNABLE;
    800019c6:	478d                	li	a5,3
    800019c8:	cc9c                	sw	a5,24(s1)
    800019ca:	b7cd                	j	800019ac <kill+0x52>

00000000800019cc <setkilled>:

void setkilled(struct proc *p) {
    800019cc:	1101                	addi	sp,sp,-32
    800019ce:	ec06                	sd	ra,24(sp)
    800019d0:	e822                	sd	s0,16(sp)
    800019d2:	e426                	sd	s1,8(sp)
    800019d4:	1000                	addi	s0,sp,32
    800019d6:	84aa                	mv	s1,a0
  acquire(&p->lock);
    800019d8:	00005097          	auipc	ra,0x5
    800019dc:	c24080e7          	jalr	-988(ra) # 800065fc <acquire>
  p->killed = 1;
    800019e0:	4785                	li	a5,1
    800019e2:	d49c                	sw	a5,40(s1)
  release(&p->lock);
    800019e4:	8526                	mv	a0,s1
    800019e6:	00005097          	auipc	ra,0x5
    800019ea:	cca080e7          	jalr	-822(ra) # 800066b0 <release>
}
    800019ee:	60e2                	ld	ra,24(sp)
    800019f0:	6442                	ld	s0,16(sp)
    800019f2:	64a2                	ld	s1,8(sp)
    800019f4:	6105                	addi	sp,sp,32
    800019f6:	8082                	ret

00000000800019f8 <killed>:

int killed(struct proc *p) {
    800019f8:	1101                	addi	sp,sp,-32
    800019fa:	ec06                	sd	ra,24(sp)
    800019fc:	e822                	sd	s0,16(sp)
    800019fe:	e426                	sd	s1,8(sp)
    80001a00:	e04a                	sd	s2,0(sp)
    80001a02:	1000                	addi	s0,sp,32
    80001a04:	84aa                	mv	s1,a0
  int k;

  acquire(&p->lock);
    80001a06:	00005097          	auipc	ra,0x5
    80001a0a:	bf6080e7          	jalr	-1034(ra) # 800065fc <acquire>
  k = p->killed;
    80001a0e:	0284a903          	lw	s2,40(s1)
  release(&p->lock);
    80001a12:	8526                	mv	a0,s1
    80001a14:	00005097          	auipc	ra,0x5
    80001a18:	c9c080e7          	jalr	-868(ra) # 800066b0 <release>
  return k;
}
    80001a1c:	854a                	mv	a0,s2
    80001a1e:	60e2                	ld	ra,24(sp)
    80001a20:	6442                	ld	s0,16(sp)
    80001a22:	64a2                	ld	s1,8(sp)
    80001a24:	6902                	ld	s2,0(sp)
    80001a26:	6105                	addi	sp,sp,32
    80001a28:	8082                	ret

0000000080001a2a <wait>:
int wait(uint64 addr) {
    80001a2a:	715d                	addi	sp,sp,-80
    80001a2c:	e486                	sd	ra,72(sp)
    80001a2e:	e0a2                	sd	s0,64(sp)
    80001a30:	fc26                	sd	s1,56(sp)
    80001a32:	f84a                	sd	s2,48(sp)
    80001a34:	f44e                	sd	s3,40(sp)
    80001a36:	f052                	sd	s4,32(sp)
    80001a38:	ec56                	sd	s5,24(sp)
    80001a3a:	e85a                	sd	s6,16(sp)
    80001a3c:	e45e                	sd	s7,8(sp)
    80001a3e:	e062                	sd	s8,0(sp)
    80001a40:	0880                	addi	s0,sp,80
    80001a42:	8b2a                	mv	s6,a0
  struct proc *p = myproc();
    80001a44:	fffff097          	auipc	ra,0xfffff
    80001a48:	65e080e7          	jalr	1630(ra) # 800010a2 <myproc>
    80001a4c:	892a                	mv	s2,a0
  acquire(&wait_lock);
    80001a4e:	0002a517          	auipc	a0,0x2a
    80001a52:	99250513          	addi	a0,a0,-1646 # 8002b3e0 <wait_lock>
    80001a56:	00005097          	auipc	ra,0x5
    80001a5a:	ba6080e7          	jalr	-1114(ra) # 800065fc <acquire>
    havekids = 0;
    80001a5e:	4b81                	li	s7,0
        if (pp->state == ZOMBIE) {
    80001a60:	4a15                	li	s4,5
        havekids = 1;
    80001a62:	4a85                	li	s5,1
    for (pp = proc; pp < &proc[NPROC]; pp++) {
    80001a64:	0002f997          	auipc	s3,0x2f
    80001a68:	79498993          	addi	s3,s3,1940 # 800311f8 <tickslock>
    sleep(p, &wait_lock);  // DOC: wait-sleep
    80001a6c:	0002ac17          	auipc	s8,0x2a
    80001a70:	974c0c13          	addi	s8,s8,-1676 # 8002b3e0 <wait_lock>
    80001a74:	a0d1                	j	80001b38 <wait+0x10e>
          pid = pp->pid;
    80001a76:	0304a983          	lw	s3,48(s1)
          if (addr != 0 && copyout(p->pagetable, addr, (char *)&pp->xstate,
    80001a7a:	000b0e63          	beqz	s6,80001a96 <wait+0x6c>
    80001a7e:	4691                	li	a3,4
    80001a80:	02c48613          	addi	a2,s1,44
    80001a84:	85da                	mv	a1,s6
    80001a86:	05093503          	ld	a0,80(s2)
    80001a8a:	fffff097          	auipc	ra,0xfffff
    80001a8e:	178080e7          	jalr	376(ra) # 80000c02 <copyout>
    80001a92:	04054163          	bltz	a0,80001ad4 <wait+0xaa>
          freeproc(pp);
    80001a96:	8526                	mv	a0,s1
    80001a98:	fffff097          	auipc	ra,0xfffff
    80001a9c:	7c0080e7          	jalr	1984(ra) # 80001258 <freeproc>
          release(&pp->lock);
    80001aa0:	8526                	mv	a0,s1
    80001aa2:	00005097          	auipc	ra,0x5
    80001aa6:	c0e080e7          	jalr	-1010(ra) # 800066b0 <release>
          release(&wait_lock);
    80001aaa:	0002a517          	auipc	a0,0x2a
    80001aae:	93650513          	addi	a0,a0,-1738 # 8002b3e0 <wait_lock>
    80001ab2:	00005097          	auipc	ra,0x5
    80001ab6:	bfe080e7          	jalr	-1026(ra) # 800066b0 <release>
}
    80001aba:	854e                	mv	a0,s3
    80001abc:	60a6                	ld	ra,72(sp)
    80001abe:	6406                	ld	s0,64(sp)
    80001ac0:	74e2                	ld	s1,56(sp)
    80001ac2:	7942                	ld	s2,48(sp)
    80001ac4:	79a2                	ld	s3,40(sp)
    80001ac6:	7a02                	ld	s4,32(sp)
    80001ac8:	6ae2                	ld	s5,24(sp)
    80001aca:	6b42                	ld	s6,16(sp)
    80001acc:	6ba2                	ld	s7,8(sp)
    80001ace:	6c02                	ld	s8,0(sp)
    80001ad0:	6161                	addi	sp,sp,80
    80001ad2:	8082                	ret
            release(&pp->lock);
    80001ad4:	8526                	mv	a0,s1
    80001ad6:	00005097          	auipc	ra,0x5
    80001ada:	bda080e7          	jalr	-1062(ra) # 800066b0 <release>
            release(&wait_lock);
    80001ade:	0002a517          	auipc	a0,0x2a
    80001ae2:	90250513          	addi	a0,a0,-1790 # 8002b3e0 <wait_lock>
    80001ae6:	00005097          	auipc	ra,0x5
    80001aea:	bca080e7          	jalr	-1078(ra) # 800066b0 <release>
            return -1;
    80001aee:	59fd                	li	s3,-1
    80001af0:	b7e9                	j	80001aba <wait+0x90>
    for (pp = proc; pp < &proc[NPROC]; pp++) {
    80001af2:	16848493          	addi	s1,s1,360
    80001af6:	03348463          	beq	s1,s3,80001b1e <wait+0xf4>
      if (pp->parent == p) {
    80001afa:	7c9c                	ld	a5,56(s1)
    80001afc:	ff279be3          	bne	a5,s2,80001af2 <wait+0xc8>
        acquire(&pp->lock);
    80001b00:	8526                	mv	a0,s1
    80001b02:	00005097          	auipc	ra,0x5
    80001b06:	afa080e7          	jalr	-1286(ra) # 800065fc <acquire>
        if (pp->state == ZOMBIE) {
    80001b0a:	4c9c                	lw	a5,24(s1)
    80001b0c:	f74785e3          	beq	a5,s4,80001a76 <wait+0x4c>
        release(&pp->lock);
    80001b10:	8526                	mv	a0,s1
    80001b12:	00005097          	auipc	ra,0x5
    80001b16:	b9e080e7          	jalr	-1122(ra) # 800066b0 <release>
        havekids = 1;
    80001b1a:	8756                	mv	a4,s5
    80001b1c:	bfd9                	j	80001af2 <wait+0xc8>
    if (!havekids || killed(p)) {
    80001b1e:	c31d                	beqz	a4,80001b44 <wait+0x11a>
    80001b20:	854a                	mv	a0,s2
    80001b22:	00000097          	auipc	ra,0x0
    80001b26:	ed6080e7          	jalr	-298(ra) # 800019f8 <killed>
    80001b2a:	ed09                	bnez	a0,80001b44 <wait+0x11a>
    sleep(p, &wait_lock);  // DOC: wait-sleep
    80001b2c:	85e2                	mv	a1,s8
    80001b2e:	854a                	mv	a0,s2
    80001b30:	00000097          	auipc	ra,0x0
    80001b34:	c20080e7          	jalr	-992(ra) # 80001750 <sleep>
    havekids = 0;
    80001b38:	875e                	mv	a4,s7
    for (pp = proc; pp < &proc[NPROC]; pp++) {
    80001b3a:	0002a497          	auipc	s1,0x2a
    80001b3e:	cbe48493          	addi	s1,s1,-834 # 8002b7f8 <proc>
    80001b42:	bf65                	j	80001afa <wait+0xd0>
      release(&wait_lock);
    80001b44:	0002a517          	auipc	a0,0x2a
    80001b48:	89c50513          	addi	a0,a0,-1892 # 8002b3e0 <wait_lock>
    80001b4c:	00005097          	auipc	ra,0x5
    80001b50:	b64080e7          	jalr	-1180(ra) # 800066b0 <release>
      return -1;
    80001b54:	59fd                	li	s3,-1
    80001b56:	b795                	j	80001aba <wait+0x90>

0000000080001b58 <either_copyout>:

// Copy to either a user address, or kernel address,
// depending on usr_dst.
// Returns 0 on success, -1 on error.
int either_copyout(int user_dst, uint64 dst, void *src, uint64 len) {
    80001b58:	7179                	addi	sp,sp,-48
    80001b5a:	f406                	sd	ra,40(sp)
    80001b5c:	f022                	sd	s0,32(sp)
    80001b5e:	ec26                	sd	s1,24(sp)
    80001b60:	e84a                	sd	s2,16(sp)
    80001b62:	e44e                	sd	s3,8(sp)
    80001b64:	e052                	sd	s4,0(sp)
    80001b66:	1800                	addi	s0,sp,48
    80001b68:	84aa                	mv	s1,a0
    80001b6a:	892e                	mv	s2,a1
    80001b6c:	89b2                	mv	s3,a2
    80001b6e:	8a36                	mv	s4,a3
  struct proc *p = myproc();
    80001b70:	fffff097          	auipc	ra,0xfffff
    80001b74:	532080e7          	jalr	1330(ra) # 800010a2 <myproc>
  if (user_dst) {
    80001b78:	c08d                	beqz	s1,80001b9a <either_copyout+0x42>
    return copyout(p->pagetable, dst, src, len);
    80001b7a:	86d2                	mv	a3,s4
    80001b7c:	864e                	mv	a2,s3
    80001b7e:	85ca                	mv	a1,s2
    80001b80:	6928                	ld	a0,80(a0)
    80001b82:	fffff097          	auipc	ra,0xfffff
    80001b86:	080080e7          	jalr	128(ra) # 80000c02 <copyout>
  } else {
    memmove((char *)dst, src, len);
    return 0;
  }
}
    80001b8a:	70a2                	ld	ra,40(sp)
    80001b8c:	7402                	ld	s0,32(sp)
    80001b8e:	64e2                	ld	s1,24(sp)
    80001b90:	6942                	ld	s2,16(sp)
    80001b92:	69a2                	ld	s3,8(sp)
    80001b94:	6a02                	ld	s4,0(sp)
    80001b96:	6145                	addi	sp,sp,48
    80001b98:	8082                	ret
    memmove((char *)dst, src, len);
    80001b9a:	000a061b          	sext.w	a2,s4
    80001b9e:	85ce                	mv	a1,s3
    80001ba0:	854a                	mv	a0,s2
    80001ba2:	ffffe097          	auipc	ra,0xffffe
    80001ba6:	6d8080e7          	jalr	1752(ra) # 8000027a <memmove>
    return 0;
    80001baa:	8526                	mv	a0,s1
    80001bac:	bff9                	j	80001b8a <either_copyout+0x32>

0000000080001bae <either_copyin>:

// Copy from either a user address, or kernel address,
// depending on usr_src.
// Returns 0 on success, -1 on error.
int either_copyin(void *dst, int user_src, uint64 src, uint64 len) {
    80001bae:	7179                	addi	sp,sp,-48
    80001bb0:	f406                	sd	ra,40(sp)
    80001bb2:	f022                	sd	s0,32(sp)
    80001bb4:	ec26                	sd	s1,24(sp)
    80001bb6:	e84a                	sd	s2,16(sp)
    80001bb8:	e44e                	sd	s3,8(sp)
    80001bba:	e052                	sd	s4,0(sp)
    80001bbc:	1800                	addi	s0,sp,48
    80001bbe:	892a                	mv	s2,a0
    80001bc0:	84ae                	mv	s1,a1
    80001bc2:	89b2                	mv	s3,a2
    80001bc4:	8a36                	mv	s4,a3
  struct proc *p = myproc();
    80001bc6:	fffff097          	auipc	ra,0xfffff
    80001bca:	4dc080e7          	jalr	1244(ra) # 800010a2 <myproc>
  if (user_src) {
    80001bce:	c08d                	beqz	s1,80001bf0 <either_copyin+0x42>
    return copyin(p->pagetable, dst, src, len);
    80001bd0:	86d2                	mv	a3,s4
    80001bd2:	864e                	mv	a2,s3
    80001bd4:	85ca                	mv	a1,s2
    80001bd6:	6928                	ld	a0,80(a0)
    80001bd8:	fffff097          	auipc	ra,0xfffff
    80001bdc:	10e080e7          	jalr	270(ra) # 80000ce6 <copyin>
  } else {
    memmove(dst, (char *)src, len);
    return 0;
  }
}
    80001be0:	70a2                	ld	ra,40(sp)
    80001be2:	7402                	ld	s0,32(sp)
    80001be4:	64e2                	ld	s1,24(sp)
    80001be6:	6942                	ld	s2,16(sp)
    80001be8:	69a2                	ld	s3,8(sp)
    80001bea:	6a02                	ld	s4,0(sp)
    80001bec:	6145                	addi	sp,sp,48
    80001bee:	8082                	ret
    memmove(dst, (char *)src, len);
    80001bf0:	000a061b          	sext.w	a2,s4
    80001bf4:	85ce                	mv	a1,s3
    80001bf6:	854a                	mv	a0,s2
    80001bf8:	ffffe097          	auipc	ra,0xffffe
    80001bfc:	682080e7          	jalr	1666(ra) # 8000027a <memmove>
    return 0;
    80001c00:	8526                	mv	a0,s1
    80001c02:	bff9                	j	80001be0 <either_copyin+0x32>

0000000080001c04 <procdump>:

// Print a process listing to console.  For debugging.
// Runs when user types ^P on console.
// No lock to avoid wedging a stuck machine further.
void procdump(void) {
    80001c04:	715d                	addi	sp,sp,-80
    80001c06:	e486                	sd	ra,72(sp)
    80001c08:	e0a2                	sd	s0,64(sp)
    80001c0a:	fc26                	sd	s1,56(sp)
    80001c0c:	f84a                	sd	s2,48(sp)
    80001c0e:	f44e                	sd	s3,40(sp)
    80001c10:	f052                	sd	s4,32(sp)
    80001c12:	ec56                	sd	s5,24(sp)
    80001c14:	e85a                	sd	s6,16(sp)
    80001c16:	e45e                	sd	s7,8(sp)
    80001c18:	0880                	addi	s0,sp,80
      [UNUSED] = "unused",   [USED] = "used",      [SLEEPING] = "sleep ",
      [RUNNABLE] = "runble", [RUNNING] = "run   ", [ZOMBIE] = "zombie"};
  struct proc *p;
  char *state;

  printf("\n");
    80001c1a:	00006517          	auipc	a0,0x6
    80001c1e:	40650513          	addi	a0,a0,1030 # 80008020 <etext+0x20>
    80001c22:	00004097          	auipc	ra,0x4
    80001c26:	4aa080e7          	jalr	1194(ra) # 800060cc <printf>
  for (p = proc; p < &proc[NPROC]; p++) {
    80001c2a:	0002a497          	auipc	s1,0x2a
    80001c2e:	d2648493          	addi	s1,s1,-730 # 8002b950 <proc+0x158>
    80001c32:	0002f917          	auipc	s2,0x2f
    80001c36:	71e90913          	addi	s2,s2,1822 # 80031350 <bcache+0x140>
    if (p->state == UNUSED) continue;
    if (p->state >= 0 && p->state < NELEM(states) && states[p->state])
    80001c3a:	4b15                	li	s6,5
      state = states[p->state];
    else
      state = "???";
    80001c3c:	00006997          	auipc	s3,0x6
    80001c40:	63c98993          	addi	s3,s3,1596 # 80008278 <etext+0x278>
    printf("%d %s %s", p->pid, state, p->name);
    80001c44:	00006a97          	auipc	s5,0x6
    80001c48:	63ca8a93          	addi	s5,s5,1596 # 80008280 <etext+0x280>
    printf("\n");
    80001c4c:	00006a17          	auipc	s4,0x6
    80001c50:	3d4a0a13          	addi	s4,s4,980 # 80008020 <etext+0x20>
    if (p->state >= 0 && p->state < NELEM(states) && states[p->state])
    80001c54:	00007b97          	auipc	s7,0x7
    80001c58:	b54b8b93          	addi	s7,s7,-1196 # 800087a8 <states.0>
    80001c5c:	a00d                	j	80001c7e <procdump+0x7a>
    printf("%d %s %s", p->pid, state, p->name);
    80001c5e:	ed86a583          	lw	a1,-296(a3)
    80001c62:	8556                	mv	a0,s5
    80001c64:	00004097          	auipc	ra,0x4
    80001c68:	468080e7          	jalr	1128(ra) # 800060cc <printf>
    printf("\n");
    80001c6c:	8552                	mv	a0,s4
    80001c6e:	00004097          	auipc	ra,0x4
    80001c72:	45e080e7          	jalr	1118(ra) # 800060cc <printf>
  for (p = proc; p < &proc[NPROC]; p++) {
    80001c76:	16848493          	addi	s1,s1,360
    80001c7a:	03248263          	beq	s1,s2,80001c9e <procdump+0x9a>
    if (p->state == UNUSED) continue;
    80001c7e:	86a6                	mv	a3,s1
    80001c80:	ec04a783          	lw	a5,-320(s1)
    80001c84:	dbed                	beqz	a5,80001c76 <procdump+0x72>
      state = "???";
    80001c86:	864e                	mv	a2,s3
    if (p->state >= 0 && p->state < NELEM(states) && states[p->state])
    80001c88:	fcfb6be3          	bltu	s6,a5,80001c5e <procdump+0x5a>
    80001c8c:	02079713          	slli	a4,a5,0x20
    80001c90:	01d75793          	srli	a5,a4,0x1d
    80001c94:	97de                	add	a5,a5,s7
    80001c96:	6390                	ld	a2,0(a5)
    80001c98:	f279                	bnez	a2,80001c5e <procdump+0x5a>
      state = "???";
    80001c9a:	864e                	mv	a2,s3
    80001c9c:	b7c9                	j	80001c5e <procdump+0x5a>
  }
}
    80001c9e:	60a6                	ld	ra,72(sp)
    80001ca0:	6406                	ld	s0,64(sp)
    80001ca2:	74e2                	ld	s1,56(sp)
    80001ca4:	7942                	ld	s2,48(sp)
    80001ca6:	79a2                	ld	s3,40(sp)
    80001ca8:	7a02                	ld	s4,32(sp)
    80001caa:	6ae2                	ld	s5,24(sp)
    80001cac:	6b42                	ld	s6,16(sp)
    80001cae:	6ba2                	ld	s7,8(sp)
    80001cb0:	6161                	addi	sp,sp,80
    80001cb2:	8082                	ret

0000000080001cb4 <swtch>:
    80001cb4:	00153023          	sd	ra,0(a0)
    80001cb8:	00253423          	sd	sp,8(a0)
    80001cbc:	e900                	sd	s0,16(a0)
    80001cbe:	ed04                	sd	s1,24(a0)
    80001cc0:	03253023          	sd	s2,32(a0)
    80001cc4:	03353423          	sd	s3,40(a0)
    80001cc8:	03453823          	sd	s4,48(a0)
    80001ccc:	03553c23          	sd	s5,56(a0)
    80001cd0:	05653023          	sd	s6,64(a0)
    80001cd4:	05753423          	sd	s7,72(a0)
    80001cd8:	05853823          	sd	s8,80(a0)
    80001cdc:	05953c23          	sd	s9,88(a0)
    80001ce0:	07a53023          	sd	s10,96(a0)
    80001ce4:	07b53423          	sd	s11,104(a0)
    80001ce8:	0005b083          	ld	ra,0(a1)
    80001cec:	0085b103          	ld	sp,8(a1)
    80001cf0:	6980                	ld	s0,16(a1)
    80001cf2:	6d84                	ld	s1,24(a1)
    80001cf4:	0205b903          	ld	s2,32(a1)
    80001cf8:	0285b983          	ld	s3,40(a1)
    80001cfc:	0305ba03          	ld	s4,48(a1)
    80001d00:	0385ba83          	ld	s5,56(a1)
    80001d04:	0405bb03          	ld	s6,64(a1)
    80001d08:	0485bb83          	ld	s7,72(a1)
    80001d0c:	0505bc03          	ld	s8,80(a1)
    80001d10:	0585bc83          	ld	s9,88(a1)
    80001d14:	0605bd03          	ld	s10,96(a1)
    80001d18:	0685bd83          	ld	s11,104(a1)
    80001d1c:	8082                	ret

0000000080001d1e <trapinit>:
// in kernelvec.S, calls kerneltrap().
void kernelvec();

extern int devintr();

void trapinit(void) { initlock(&tickslock, "time"); }
    80001d1e:	1141                	addi	sp,sp,-16
    80001d20:	e406                	sd	ra,8(sp)
    80001d22:	e022                	sd	s0,0(sp)
    80001d24:	0800                	addi	s0,sp,16
    80001d26:	00006597          	auipc	a1,0x6
    80001d2a:	59a58593          	addi	a1,a1,1434 # 800082c0 <etext+0x2c0>
    80001d2e:	0002f517          	auipc	a0,0x2f
    80001d32:	4ca50513          	addi	a0,a0,1226 # 800311f8 <tickslock>
    80001d36:	00005097          	auipc	ra,0x5
    80001d3a:	836080e7          	jalr	-1994(ra) # 8000656c <initlock>
    80001d3e:	60a2                	ld	ra,8(sp)
    80001d40:	6402                	ld	s0,0(sp)
    80001d42:	0141                	addi	sp,sp,16
    80001d44:	8082                	ret

0000000080001d46 <trapinithart>:

// set up to take exceptions and traps while in the kernel.
void trapinithart(void) { w_stvec((uint64)kernelvec); }
    80001d46:	1141                	addi	sp,sp,-16
    80001d48:	e422                	sd	s0,8(sp)
    80001d4a:	0800                	addi	s0,sp,16
  asm volatile("csrw stvec, %0" : : "r"(x));
    80001d4c:	00003797          	auipc	a5,0x3
    80001d50:	70478793          	addi	a5,a5,1796 # 80005450 <kernelvec>
    80001d54:	10579073          	csrw	stvec,a5
    80001d58:	6422                	ld	s0,8(sp)
    80001d5a:	0141                	addi	sp,sp,16
    80001d5c:	8082                	ret

0000000080001d5e <copyonwrite>:

int copyonwrite(pagetable_t pagetable, uint64 addr) {
    80001d5e:	7139                	addi	sp,sp,-64
    80001d60:	fc06                	sd	ra,56(sp)
    80001d62:	f822                	sd	s0,48(sp)
    80001d64:	f04a                	sd	s2,32(sp)
    80001d66:	0080                	addi	s0,sp,64
  uint64 va = PGROUNDDOWN(addr);
    80001d68:	77fd                	lui	a5,0xfffff
    80001d6a:	00f5f933          	and	s2,a1,a5
  if (va >= MAXVA) {
    80001d6e:	57fd                	li	a5,-1
    80001d70:	83e9                	srli	a5,a5,0x1a
    80001d72:	0d27eb63          	bltu	a5,s2,80001e48 <copyonwrite+0xea>
    80001d76:	ec4e                	sd	s3,24(sp)
    80001d78:	e852                	sd	s4,16(sp)
    80001d7a:	8a2a                	mv	s4,a0
    return -1;
  }
  pte_t *pte;
  if ((pte = walk(pagetable, va, 0)) == 0) {
    80001d7c:	4601                	li	a2,0
    80001d7e:	85ca                	mv	a1,s2
    80001d80:	ffffe097          	auipc	ra,0xffffe
    80001d84:	77a080e7          	jalr	1914(ra) # 800004fa <walk>
    80001d88:	89aa                	mv	s3,a0
    80001d8a:	c169                	beqz	a0,80001e4c <copyonwrite+0xee>
    return -1;
  }

  if (!(*pte & PTE_V) || !(*pte & PTE_U) ||
    80001d8c:	611c                	ld	a5,0(a0)
    80001d8e:	0117f693          	andi	a3,a5,17
    80001d92:	4745                	li	a4,17
    80001d94:	0ce69063          	bne	a3,a4,80001e54 <copyonwrite+0xf6>
      (!(*pte & PTE_W) && !(*pte & PTE_C))) {
    80001d98:	1047f713          	andi	a4,a5,260
  if (!(*pte & PTE_V) || !(*pte & PTE_U) ||
    80001d9c:	c361                	beqz	a4,80001e5c <copyonwrite+0xfe>
    80001d9e:	f426                	sd	s1,40(sp)
    return -1;
  }

  uint64 pa = PTE2PA(*pte);
    80001da0:	83a9                	srli	a5,a5,0xa
    80001da2:	00c79493          	slli	s1,a5,0xc

  if (change_and_get_ref(P_IND(pa), 0) == 1) {
    80001da6:	80000537          	lui	a0,0x80000
    80001daa:	9526                	add	a0,a0,s1
    80001dac:	4581                	li	a1,0
    80001dae:	8131                	srli	a0,a0,0xc
    80001db0:	ffffe097          	auipc	ra,0xffffe
    80001db4:	26c080e7          	jalr	620(ra) # 8000001c <change_and_get_ref>
    80001db8:	4785                	li	a5,1
    80001dba:	04f50f63          	beq	a0,a5,80001e18 <copyonwrite+0xba>
    80001dbe:	e456                	sd	s5,8(sp)
    *pte &= (~PTE_C);
    return 0;
  }

  char *mem;
  if ((mem = kalloc()) == 0) {
    80001dc0:	ffffe097          	auipc	ra,0xffffe
    80001dc4:	3e4080e7          	jalr	996(ra) # 800001a4 <kalloc>
    80001dc8:	8aaa                	mv	s5,a0
    80001dca:	cd49                	beqz	a0,80001e64 <copyonwrite+0x106>
    return -1;
  }

  uint flags = PTE_FLAGS(*pte);
    80001dcc:	0009a983          	lw	s3,0(s3)
  memmove(mem, (char *)pa, PGSIZE);
    80001dd0:	6605                	lui	a2,0x1
    80001dd2:	85a6                	mv	a1,s1
    80001dd4:	ffffe097          	auipc	ra,0xffffe
    80001dd8:	4a6080e7          	jalr	1190(ra) # 8000027a <memmove>
  uvmunmap(pagetable, va, 1, 1);
    80001ddc:	4685                	li	a3,1
    80001dde:	4605                	li	a2,1
    80001de0:	85ca                	mv	a1,s2
    80001de2:	8552                	mv	a0,s4
    80001de4:	fffff097          	auipc	ra,0xfffff
    80001de8:	9e8080e7          	jalr	-1560(ra) # 800007cc <uvmunmap>

  flags &= (~PTE_C);
    80001dec:	2ff9f713          	andi	a4,s3,767
  flags |= PTE_W;

  if (mappages(pagetable, va, PGSIZE, (uint64)mem, flags) != 0) {
    80001df0:	00476713          	ori	a4,a4,4
    80001df4:	86d6                	mv	a3,s5
    80001df6:	6605                	lui	a2,0x1
    80001df8:	85ca                	mv	a1,s2
    80001dfa:	8552                	mv	a0,s4
    80001dfc:	ffffe097          	auipc	ra,0xffffe
    80001e00:	7e6080e7          	jalr	2022(ra) # 800005e2 <mappages>
    80001e04:	e51d                	bnez	a0,80001e32 <copyonwrite+0xd4>
    80001e06:	74a2                	ld	s1,40(sp)
    80001e08:	69e2                	ld	s3,24(sp)
    80001e0a:	6a42                	ld	s4,16(sp)
    80001e0c:	6aa2                	ld	s5,8(sp)
    kfree(mem);
    return -1;
  }
  return 0;
}
    80001e0e:	70e2                	ld	ra,56(sp)
    80001e10:	7442                	ld	s0,48(sp)
    80001e12:	7902                	ld	s2,32(sp)
    80001e14:	6121                	addi	sp,sp,64
    80001e16:	8082                	ret
    *pte &= (~PTE_C);
    80001e18:	0009b783          	ld	a5,0(s3)
    80001e1c:	eff7f793          	andi	a5,a5,-257
    80001e20:	0047e793          	ori	a5,a5,4
    80001e24:	00f9b023          	sd	a5,0(s3)
    return 0;
    80001e28:	4501                	li	a0,0
    80001e2a:	74a2                	ld	s1,40(sp)
    80001e2c:	69e2                	ld	s3,24(sp)
    80001e2e:	6a42                	ld	s4,16(sp)
    80001e30:	bff9                	j	80001e0e <copyonwrite+0xb0>
    kfree(mem);
    80001e32:	8556                	mv	a0,s5
    80001e34:	ffffe097          	auipc	ra,0xffffe
    80001e38:	23a080e7          	jalr	570(ra) # 8000006e <kfree>
    return -1;
    80001e3c:	557d                	li	a0,-1
    80001e3e:	74a2                	ld	s1,40(sp)
    80001e40:	69e2                	ld	s3,24(sp)
    80001e42:	6a42                	ld	s4,16(sp)
    80001e44:	6aa2                	ld	s5,8(sp)
    80001e46:	b7e1                	j	80001e0e <copyonwrite+0xb0>
    return -1;
    80001e48:	557d                	li	a0,-1
    80001e4a:	b7d1                	j	80001e0e <copyonwrite+0xb0>
    return -1;
    80001e4c:	557d                	li	a0,-1
    80001e4e:	69e2                	ld	s3,24(sp)
    80001e50:	6a42                	ld	s4,16(sp)
    80001e52:	bf75                	j	80001e0e <copyonwrite+0xb0>
    return -1;
    80001e54:	557d                	li	a0,-1
    80001e56:	69e2                	ld	s3,24(sp)
    80001e58:	6a42                	ld	s4,16(sp)
    80001e5a:	bf55                	j	80001e0e <copyonwrite+0xb0>
    80001e5c:	557d                	li	a0,-1
    80001e5e:	69e2                	ld	s3,24(sp)
    80001e60:	6a42                	ld	s4,16(sp)
    80001e62:	b775                	j	80001e0e <copyonwrite+0xb0>
    return -1;
    80001e64:	557d                	li	a0,-1
    80001e66:	74a2                	ld	s1,40(sp)
    80001e68:	69e2                	ld	s3,24(sp)
    80001e6a:	6a42                	ld	s4,16(sp)
    80001e6c:	6aa2                	ld	s5,8(sp)
    80001e6e:	b745                	j	80001e0e <copyonwrite+0xb0>

0000000080001e70 <usertrapret>:
}

//
// return to user space
//
void usertrapret(void) {
    80001e70:	1141                	addi	sp,sp,-16
    80001e72:	e406                	sd	ra,8(sp)
    80001e74:	e022                	sd	s0,0(sp)
    80001e76:	0800                	addi	s0,sp,16
  struct proc *p = myproc();
    80001e78:	fffff097          	auipc	ra,0xfffff
    80001e7c:	22a080e7          	jalr	554(ra) # 800010a2 <myproc>
  asm volatile("csrr %0, sstatus" : "=r"(x));
    80001e80:	100027f3          	csrr	a5,sstatus
static inline void intr_off() { w_sstatus(r_sstatus() & ~SSTATUS_SIE); }
    80001e84:	9bf5                	andi	a5,a5,-3
  asm volatile("csrw sstatus, %0" : : "r"(x));
    80001e86:	10079073          	csrw	sstatus,a5
  // kerneltrap() to usertrap(), so turn off interrupts until
  // we're back in user space, where usertrap() is correct.
  intr_off();

  // send syscalls, interrupts, and exceptions to uservec in trampoline.S
  uint64 trampoline_uservec = TRAMPOLINE + (uservec - trampoline);
    80001e8a:	00005697          	auipc	a3,0x5
    80001e8e:	17668693          	addi	a3,a3,374 # 80007000 <_trampoline>
    80001e92:	00005717          	auipc	a4,0x5
    80001e96:	16e70713          	addi	a4,a4,366 # 80007000 <_trampoline>
    80001e9a:	8f15                	sub	a4,a4,a3
    80001e9c:	040007b7          	lui	a5,0x4000
    80001ea0:	17fd                	addi	a5,a5,-1 # 3ffffff <_entry-0x7c000001>
    80001ea2:	07b2                	slli	a5,a5,0xc
    80001ea4:	973e                	add	a4,a4,a5
  asm volatile("csrw stvec, %0" : : "r"(x));
    80001ea6:	10571073          	csrw	stvec,a4
  w_stvec(trampoline_uservec);

  // set up trapframe values that uservec will need when
  // the process next traps into the kernel.
  p->trapframe->kernel_satp = r_satp();          // kernel page table
    80001eaa:	6d38                	ld	a4,88(a0)
  asm volatile("csrr %0, satp" : "=r"(x));
    80001eac:	18002673          	csrr	a2,satp
    80001eb0:	e310                	sd	a2,0(a4)
  p->trapframe->kernel_sp = p->kstack + PGSIZE;  // process's kernel stack
    80001eb2:	6d30                	ld	a2,88(a0)
    80001eb4:	6138                	ld	a4,64(a0)
    80001eb6:	6585                	lui	a1,0x1
    80001eb8:	972e                	add	a4,a4,a1
    80001eba:	e618                	sd	a4,8(a2)
  p->trapframe->kernel_trap = (uint64)usertrap;
    80001ebc:	6d38                	ld	a4,88(a0)
    80001ebe:	00000617          	auipc	a2,0x0
    80001ec2:	13860613          	addi	a2,a2,312 # 80001ff6 <usertrap>
    80001ec6:	eb10                	sd	a2,16(a4)
  p->trapframe->kernel_hartid = r_tp();  // hartid for cpuid()
    80001ec8:	6d38                	ld	a4,88(a0)
  asm volatile("mv %0, tp" : "=r"(x));
    80001eca:	8612                	mv	a2,tp
    80001ecc:	f310                	sd	a2,32(a4)
  asm volatile("csrr %0, sstatus" : "=r"(x));
    80001ece:	10002773          	csrr	a4,sstatus
  // set up the registers that trampoline.S's sret will use
  // to get to user space.

  // set S Previous Privilege mode to User.
  unsigned long x = r_sstatus();
  x &= ~SSTATUS_SPP;  // clear SPP to 0 for user mode
    80001ed2:	eff77713          	andi	a4,a4,-257
  x |= SSTATUS_SPIE;  // enable interrupts in user mode
    80001ed6:	02076713          	ori	a4,a4,32
  asm volatile("csrw sstatus, %0" : : "r"(x));
    80001eda:	10071073          	csrw	sstatus,a4
  w_sstatus(x);

  // set S Exception Program Counter to the saved user pc.
  w_sepc(p->trapframe->epc);
    80001ede:	6d38                	ld	a4,88(a0)
  asm volatile("csrw sepc, %0" : : "r"(x));
    80001ee0:	6f18                	ld	a4,24(a4)
    80001ee2:	14171073          	csrw	sepc,a4

  // tell trampoline.S the user page table to switch to.
  uint64 satp = MAKE_SATP(p->pagetable);
    80001ee6:	6928                	ld	a0,80(a0)
    80001ee8:	8131                	srli	a0,a0,0xc

  // jump to userret in trampoline.S at the top of memory, which
  // switches to the user page table, restores user registers,
  // and switches to user mode with sret.
  uint64 trampoline_userret = TRAMPOLINE + (userret - trampoline);
    80001eea:	00005717          	auipc	a4,0x5
    80001eee:	1b270713          	addi	a4,a4,434 # 8000709c <userret>
    80001ef2:	8f15                	sub	a4,a4,a3
    80001ef4:	97ba                	add	a5,a5,a4
  ((void (*)(uint64))trampoline_userret)(satp);
    80001ef6:	577d                	li	a4,-1
    80001ef8:	177e                	slli	a4,a4,0x3f
    80001efa:	8d59                	or	a0,a0,a4
    80001efc:	9782                	jalr	a5
}
    80001efe:	60a2                	ld	ra,8(sp)
    80001f00:	6402                	ld	s0,0(sp)
    80001f02:	0141                	addi	sp,sp,16
    80001f04:	8082                	ret

0000000080001f06 <clockintr>:
  // so restore trap registers for use by kernelvec.S's sepc instruction.
  w_sepc(sepc);
  w_sstatus(sstatus);
}

void clockintr() {
    80001f06:	1101                	addi	sp,sp,-32
    80001f08:	ec06                	sd	ra,24(sp)
    80001f0a:	e822                	sd	s0,16(sp)
    80001f0c:	e426                	sd	s1,8(sp)
    80001f0e:	1000                	addi	s0,sp,32
  acquire(&tickslock);
    80001f10:	0002f497          	auipc	s1,0x2f
    80001f14:	2e848493          	addi	s1,s1,744 # 800311f8 <tickslock>
    80001f18:	8526                	mv	a0,s1
    80001f1a:	00004097          	auipc	ra,0x4
    80001f1e:	6e2080e7          	jalr	1762(ra) # 800065fc <acquire>
  ticks++;
    80001f22:	00009517          	auipc	a0,0x9
    80001f26:	45650513          	addi	a0,a0,1110 # 8000b378 <ticks>
    80001f2a:	411c                	lw	a5,0(a0)
    80001f2c:	2785                	addiw	a5,a5,1
    80001f2e:	c11c                	sw	a5,0(a0)
  wakeup(&ticks);
    80001f30:	00000097          	auipc	ra,0x0
    80001f34:	884080e7          	jalr	-1916(ra) # 800017b4 <wakeup>
  release(&tickslock);
    80001f38:	8526                	mv	a0,s1
    80001f3a:	00004097          	auipc	ra,0x4
    80001f3e:	776080e7          	jalr	1910(ra) # 800066b0 <release>
}
    80001f42:	60e2                	ld	ra,24(sp)
    80001f44:	6442                	ld	s0,16(sp)
    80001f46:	64a2                	ld	s1,8(sp)
    80001f48:	6105                	addi	sp,sp,32
    80001f4a:	8082                	ret

0000000080001f4c <devintr>:
  asm volatile("csrr %0, scause" : "=r"(x));
    80001f4c:	142027f3          	csrr	a5,scause
    // the SSIP bit in sip.
    w_sip(r_sip() & ~2);

    return 2;
  } else {
    return 0;
    80001f50:	4501                	li	a0,0
  if ((scause & 0x8000000000000000L) && (scause & 0xff) == 9) {
    80001f52:	0a07d163          	bgez	a5,80001ff4 <devintr+0xa8>
int devintr() {
    80001f56:	1101                	addi	sp,sp,-32
    80001f58:	ec06                	sd	ra,24(sp)
    80001f5a:	e822                	sd	s0,16(sp)
    80001f5c:	1000                	addi	s0,sp,32
  if ((scause & 0x8000000000000000L) && (scause & 0xff) == 9) {
    80001f5e:	0ff7f713          	zext.b	a4,a5
    80001f62:	46a5                	li	a3,9
    80001f64:	00d70c63          	beq	a4,a3,80001f7c <devintr+0x30>
  } else if (scause == 0x8000000000000001L) {
    80001f68:	577d                	li	a4,-1
    80001f6a:	177e                	slli	a4,a4,0x3f
    80001f6c:	0705                	addi	a4,a4,1
    return 0;
    80001f6e:	4501                	li	a0,0
  } else if (scause == 0x8000000000000001L) {
    80001f70:	06e78163          	beq	a5,a4,80001fd2 <devintr+0x86>
  }
}
    80001f74:	60e2                	ld	ra,24(sp)
    80001f76:	6442                	ld	s0,16(sp)
    80001f78:	6105                	addi	sp,sp,32
    80001f7a:	8082                	ret
    80001f7c:	e426                	sd	s1,8(sp)
    int irq = plic_claim();
    80001f7e:	00003097          	auipc	ra,0x3
    80001f82:	5de080e7          	jalr	1502(ra) # 8000555c <plic_claim>
    80001f86:	84aa                	mv	s1,a0
    if (irq == UART0_IRQ) {
    80001f88:	47a9                	li	a5,10
    80001f8a:	00f50963          	beq	a0,a5,80001f9c <devintr+0x50>
    } else if (irq == VIRTIO0_IRQ) {
    80001f8e:	4785                	li	a5,1
    80001f90:	00f50b63          	beq	a0,a5,80001fa6 <devintr+0x5a>
    return 1;
    80001f94:	4505                	li	a0,1
    } else if (irq) {
    80001f96:	ec89                	bnez	s1,80001fb0 <devintr+0x64>
    80001f98:	64a2                	ld	s1,8(sp)
    80001f9a:	bfe9                	j	80001f74 <devintr+0x28>
      uartintr();
    80001f9c:	00004097          	auipc	ra,0x4
    80001fa0:	580080e7          	jalr	1408(ra) # 8000651c <uartintr>
    if (irq) plic_complete(irq);
    80001fa4:	a839                	j	80001fc2 <devintr+0x76>
      virtio_disk_intr();
    80001fa6:	00004097          	auipc	ra,0x4
    80001faa:	ae0080e7          	jalr	-1312(ra) # 80005a86 <virtio_disk_intr>
    if (irq) plic_complete(irq);
    80001fae:	a811                	j	80001fc2 <devintr+0x76>
      printf("unexpected interrupt irq=%d\n", irq);
    80001fb0:	85a6                	mv	a1,s1
    80001fb2:	00006517          	auipc	a0,0x6
    80001fb6:	31650513          	addi	a0,a0,790 # 800082c8 <etext+0x2c8>
    80001fba:	00004097          	auipc	ra,0x4
    80001fbe:	112080e7          	jalr	274(ra) # 800060cc <printf>
    if (irq) plic_complete(irq);
    80001fc2:	8526                	mv	a0,s1
    80001fc4:	00003097          	auipc	ra,0x3
    80001fc8:	5bc080e7          	jalr	1468(ra) # 80005580 <plic_complete>
    return 1;
    80001fcc:	4505                	li	a0,1
    80001fce:	64a2                	ld	s1,8(sp)
    80001fd0:	b755                	j	80001f74 <devintr+0x28>
    if (cpuid() == 0) {
    80001fd2:	fffff097          	auipc	ra,0xfffff
    80001fd6:	0a4080e7          	jalr	164(ra) # 80001076 <cpuid>
    80001fda:	c901                	beqz	a0,80001fea <devintr+0x9e>
  asm volatile("csrr %0, sip" : "=r"(x));
    80001fdc:	144027f3          	csrr	a5,sip
    w_sip(r_sip() & ~2);
    80001fe0:	9bf5                	andi	a5,a5,-3
static inline void w_sip(uint64 x) { asm volatile("csrw sip, %0" : : "r"(x)); }
    80001fe2:	14479073          	csrw	sip,a5
    return 2;
    80001fe6:	4509                	li	a0,2
    80001fe8:	b771                	j	80001f74 <devintr+0x28>
      clockintr();
    80001fea:	00000097          	auipc	ra,0x0
    80001fee:	f1c080e7          	jalr	-228(ra) # 80001f06 <clockintr>
    80001ff2:	b7ed                	j	80001fdc <devintr+0x90>
}
    80001ff4:	8082                	ret

0000000080001ff6 <usertrap>:
void usertrap(void) {
    80001ff6:	1101                	addi	sp,sp,-32
    80001ff8:	ec06                	sd	ra,24(sp)
    80001ffa:	e822                	sd	s0,16(sp)
    80001ffc:	e426                	sd	s1,8(sp)
    80001ffe:	e04a                	sd	s2,0(sp)
    80002000:	1000                	addi	s0,sp,32
  asm volatile("csrr %0, sstatus" : "=r"(x));
    80002002:	100027f3          	csrr	a5,sstatus
  if ((r_sstatus() & SSTATUS_SPP) != 0) panic("usertrap: not from user mode");
    80002006:	1007f793          	andi	a5,a5,256
    8000200a:	e7b9                	bnez	a5,80002058 <usertrap+0x62>
  asm volatile("csrw stvec, %0" : : "r"(x));
    8000200c:	00003797          	auipc	a5,0x3
    80002010:	44478793          	addi	a5,a5,1092 # 80005450 <kernelvec>
    80002014:	10579073          	csrw	stvec,a5
  struct proc *p = myproc();
    80002018:	fffff097          	auipc	ra,0xfffff
    8000201c:	08a080e7          	jalr	138(ra) # 800010a2 <myproc>
    80002020:	84aa                	mv	s1,a0
  p->trapframe->epc = r_sepc();
    80002022:	6d3c                	ld	a5,88(a0)
  asm volatile("csrr %0, sepc" : "=r"(x));
    80002024:	14102773          	csrr	a4,sepc
    80002028:	ef98                	sd	a4,24(a5)
  asm volatile("csrr %0, scause" : "=r"(x));
    8000202a:	14202773          	csrr	a4,scause
  if (r_scause() == 15) {
    8000202e:	47bd                	li	a5,15
    80002030:	02f70c63          	beq	a4,a5,80002068 <usertrap+0x72>
    80002034:	14202773          	csrr	a4,scause
  } else if (r_scause() == 8) {
    80002038:	47a1                	li	a5,8
    8000203a:	04f70763          	beq	a4,a5,80002088 <usertrap+0x92>
  } else if ((which_dev = devintr()) != 0) {
    8000203e:	00000097          	auipc	ra,0x0
    80002042:	f0e080e7          	jalr	-242(ra) # 80001f4c <devintr>
    80002046:	892a                	mv	s2,a0
    80002048:	c949                	beqz	a0,800020da <usertrap+0xe4>
  if (killed(p)) exit(-1);
    8000204a:	8526                	mv	a0,s1
    8000204c:	00000097          	auipc	ra,0x0
    80002050:	9ac080e7          	jalr	-1620(ra) # 800019f8 <killed>
    80002054:	c571                	beqz	a0,80002120 <usertrap+0x12a>
    80002056:	a0c1                	j	80002116 <usertrap+0x120>
  if ((r_sstatus() & SSTATUS_SPP) != 0) panic("usertrap: not from user mode");
    80002058:	00006517          	auipc	a0,0x6
    8000205c:	29050513          	addi	a0,a0,656 # 800082e8 <etext+0x2e8>
    80002060:	00004097          	auipc	ra,0x4
    80002064:	022080e7          	jalr	34(ra) # 80006082 <panic>
  asm volatile("csrr %0, stval" : "=r"(x));
    80002068:	143025f3          	csrr	a1,stval
    if (copyonwrite(p->pagetable, r_stval()) == -1) {
    8000206c:	6928                	ld	a0,80(a0)
    8000206e:	00000097          	auipc	ra,0x0
    80002072:	cf0080e7          	jalr	-784(ra) # 80001d5e <copyonwrite>
    80002076:	57fd                	li	a5,-1
    80002078:	02f51b63          	bne	a0,a5,800020ae <usertrap+0xb8>
      setkilled(p);
    8000207c:	8526                	mv	a0,s1
    8000207e:	00000097          	auipc	ra,0x0
    80002082:	94e080e7          	jalr	-1714(ra) # 800019cc <setkilled>
    80002086:	a025                	j	800020ae <usertrap+0xb8>
    if (killed(p)) exit(-1);
    80002088:	00000097          	auipc	ra,0x0
    8000208c:	970080e7          	jalr	-1680(ra) # 800019f8 <killed>
    80002090:	ed1d                	bnez	a0,800020ce <usertrap+0xd8>
    p->trapframe->epc += 4;
    80002092:	6cb8                	ld	a4,88(s1)
    80002094:	6f1c                	ld	a5,24(a4)
    80002096:	0791                	addi	a5,a5,4
    80002098:	ef1c                	sd	a5,24(a4)
  asm volatile("csrr %0, sstatus" : "=r"(x));
    8000209a:	100027f3          	csrr	a5,sstatus
static inline void intr_on() { w_sstatus(r_sstatus() | SSTATUS_SIE); }
    8000209e:	0027e793          	ori	a5,a5,2
  asm volatile("csrw sstatus, %0" : : "r"(x));
    800020a2:	10079073          	csrw	sstatus,a5
    syscall();
    800020a6:	00000097          	auipc	ra,0x0
    800020aa:	2d4080e7          	jalr	724(ra) # 8000237a <syscall>
  if (killed(p)) exit(-1);
    800020ae:	8526                	mv	a0,s1
    800020b0:	00000097          	auipc	ra,0x0
    800020b4:	948080e7          	jalr	-1720(ra) # 800019f8 <killed>
    800020b8:	ed31                	bnez	a0,80002114 <usertrap+0x11e>
  usertrapret();
    800020ba:	00000097          	auipc	ra,0x0
    800020be:	db6080e7          	jalr	-586(ra) # 80001e70 <usertrapret>
}
    800020c2:	60e2                	ld	ra,24(sp)
    800020c4:	6442                	ld	s0,16(sp)
    800020c6:	64a2                	ld	s1,8(sp)
    800020c8:	6902                	ld	s2,0(sp)
    800020ca:	6105                	addi	sp,sp,32
    800020cc:	8082                	ret
    if (killed(p)) exit(-1);
    800020ce:	557d                	li	a0,-1
    800020d0:	fffff097          	auipc	ra,0xfffff
    800020d4:	7b4080e7          	jalr	1972(ra) # 80001884 <exit>
    800020d8:	bf6d                	j	80002092 <usertrap+0x9c>
  asm volatile("csrr %0, scause" : "=r"(x));
    800020da:	142025f3          	csrr	a1,scause
    printf("usertrap(): unexpected scause %p pid=%d\n", r_scause(), p->pid);
    800020de:	5890                	lw	a2,48(s1)
    800020e0:	00006517          	auipc	a0,0x6
    800020e4:	22850513          	addi	a0,a0,552 # 80008308 <etext+0x308>
    800020e8:	00004097          	auipc	ra,0x4
    800020ec:	fe4080e7          	jalr	-28(ra) # 800060cc <printf>
  asm volatile("csrr %0, sepc" : "=r"(x));
    800020f0:	141025f3          	csrr	a1,sepc
  asm volatile("csrr %0, stval" : "=r"(x));
    800020f4:	14302673          	csrr	a2,stval
    printf("            sepc=%p stval=%p\n", r_sepc(), r_stval());
    800020f8:	00006517          	auipc	a0,0x6
    800020fc:	24050513          	addi	a0,a0,576 # 80008338 <etext+0x338>
    80002100:	00004097          	auipc	ra,0x4
    80002104:	fcc080e7          	jalr	-52(ra) # 800060cc <printf>
    setkilled(p);
    80002108:	8526                	mv	a0,s1
    8000210a:	00000097          	auipc	ra,0x0
    8000210e:	8c2080e7          	jalr	-1854(ra) # 800019cc <setkilled>
    80002112:	bf71                	j	800020ae <usertrap+0xb8>
  if (killed(p)) exit(-1);
    80002114:	4901                	li	s2,0
    80002116:	557d                	li	a0,-1
    80002118:	fffff097          	auipc	ra,0xfffff
    8000211c:	76c080e7          	jalr	1900(ra) # 80001884 <exit>
  if (which_dev == 2) yield();
    80002120:	4789                	li	a5,2
    80002122:	f8f91ce3          	bne	s2,a5,800020ba <usertrap+0xc4>
    80002126:	fffff097          	auipc	ra,0xfffff
    8000212a:	5ee080e7          	jalr	1518(ra) # 80001714 <yield>
    8000212e:	b771                	j	800020ba <usertrap+0xc4>

0000000080002130 <kerneltrap>:
void kerneltrap() {
    80002130:	7179                	addi	sp,sp,-48
    80002132:	f406                	sd	ra,40(sp)
    80002134:	f022                	sd	s0,32(sp)
    80002136:	ec26                	sd	s1,24(sp)
    80002138:	e84a                	sd	s2,16(sp)
    8000213a:	e44e                	sd	s3,8(sp)
    8000213c:	1800                	addi	s0,sp,48
  asm volatile("csrr %0, sepc" : "=r"(x));
    8000213e:	14102973          	csrr	s2,sepc
  asm volatile("csrr %0, sstatus" : "=r"(x));
    80002142:	100024f3          	csrr	s1,sstatus
  asm volatile("csrr %0, scause" : "=r"(x));
    80002146:	142029f3          	csrr	s3,scause
  if ((sstatus & SSTATUS_SPP) == 0)
    8000214a:	1004f793          	andi	a5,s1,256
    8000214e:	cb85                	beqz	a5,8000217e <kerneltrap+0x4e>
  asm volatile("csrr %0, sstatus" : "=r"(x));
    80002150:	100027f3          	csrr	a5,sstatus
  return (x & SSTATUS_SIE) != 0;
    80002154:	8b89                	andi	a5,a5,2
  if (intr_get() != 0) panic("kerneltrap: interrupts enabled");
    80002156:	ef85                	bnez	a5,8000218e <kerneltrap+0x5e>
  if ((which_dev = devintr()) == 0) {
    80002158:	00000097          	auipc	ra,0x0
    8000215c:	df4080e7          	jalr	-524(ra) # 80001f4c <devintr>
    80002160:	cd1d                	beqz	a0,8000219e <kerneltrap+0x6e>
  if (which_dev == 2 && myproc() != 0 && myproc()->state == RUNNING) yield();
    80002162:	4789                	li	a5,2
    80002164:	06f50a63          	beq	a0,a5,800021d8 <kerneltrap+0xa8>
  asm volatile("csrw sepc, %0" : : "r"(x));
    80002168:	14191073          	csrw	sepc,s2
  asm volatile("csrw sstatus, %0" : : "r"(x));
    8000216c:	10049073          	csrw	sstatus,s1
}
    80002170:	70a2                	ld	ra,40(sp)
    80002172:	7402                	ld	s0,32(sp)
    80002174:	64e2                	ld	s1,24(sp)
    80002176:	6942                	ld	s2,16(sp)
    80002178:	69a2                	ld	s3,8(sp)
    8000217a:	6145                	addi	sp,sp,48
    8000217c:	8082                	ret
    panic("kerneltrap: not from supervisor mode");
    8000217e:	00006517          	auipc	a0,0x6
    80002182:	1da50513          	addi	a0,a0,474 # 80008358 <etext+0x358>
    80002186:	00004097          	auipc	ra,0x4
    8000218a:	efc080e7          	jalr	-260(ra) # 80006082 <panic>
  if (intr_get() != 0) panic("kerneltrap: interrupts enabled");
    8000218e:	00006517          	auipc	a0,0x6
    80002192:	1f250513          	addi	a0,a0,498 # 80008380 <etext+0x380>
    80002196:	00004097          	auipc	ra,0x4
    8000219a:	eec080e7          	jalr	-276(ra) # 80006082 <panic>
    printf("scause %p\n", scause);
    8000219e:	85ce                	mv	a1,s3
    800021a0:	00006517          	auipc	a0,0x6
    800021a4:	20050513          	addi	a0,a0,512 # 800083a0 <etext+0x3a0>
    800021a8:	00004097          	auipc	ra,0x4
    800021ac:	f24080e7          	jalr	-220(ra) # 800060cc <printf>
  asm volatile("csrr %0, sepc" : "=r"(x));
    800021b0:	141025f3          	csrr	a1,sepc
  asm volatile("csrr %0, stval" : "=r"(x));
    800021b4:	14302673          	csrr	a2,stval
    printf("sepc=%p stval=%p\n", r_sepc(), r_stval());
    800021b8:	00006517          	auipc	a0,0x6
    800021bc:	1f850513          	addi	a0,a0,504 # 800083b0 <etext+0x3b0>
    800021c0:	00004097          	auipc	ra,0x4
    800021c4:	f0c080e7          	jalr	-244(ra) # 800060cc <printf>
    panic("kerneltrap");
    800021c8:	00006517          	auipc	a0,0x6
    800021cc:	20050513          	addi	a0,a0,512 # 800083c8 <etext+0x3c8>
    800021d0:	00004097          	auipc	ra,0x4
    800021d4:	eb2080e7          	jalr	-334(ra) # 80006082 <panic>
  if (which_dev == 2 && myproc() != 0 && myproc()->state == RUNNING) yield();
    800021d8:	fffff097          	auipc	ra,0xfffff
    800021dc:	eca080e7          	jalr	-310(ra) # 800010a2 <myproc>
    800021e0:	d541                	beqz	a0,80002168 <kerneltrap+0x38>
    800021e2:	fffff097          	auipc	ra,0xfffff
    800021e6:	ec0080e7          	jalr	-320(ra) # 800010a2 <myproc>
    800021ea:	4d18                	lw	a4,24(a0)
    800021ec:	4791                	li	a5,4
    800021ee:	f6f71de3          	bne	a4,a5,80002168 <kerneltrap+0x38>
    800021f2:	fffff097          	auipc	ra,0xfffff
    800021f6:	522080e7          	jalr	1314(ra) # 80001714 <yield>
    800021fa:	b7bd                	j	80002168 <kerneltrap+0x38>

00000000800021fc <argraw>:
  struct proc *p = myproc();
  if (copyinstr(p->pagetable, buf, addr, max) < 0) return -1;
  return strlen(buf);
}

static uint64 argraw(int n) {
    800021fc:	1101                	addi	sp,sp,-32
    800021fe:	ec06                	sd	ra,24(sp)
    80002200:	e822                	sd	s0,16(sp)
    80002202:	e426                	sd	s1,8(sp)
    80002204:	1000                	addi	s0,sp,32
    80002206:	84aa                	mv	s1,a0
  struct proc *p = myproc();
    80002208:	fffff097          	auipc	ra,0xfffff
    8000220c:	e9a080e7          	jalr	-358(ra) # 800010a2 <myproc>
  switch (n) {
    80002210:	4795                	li	a5,5
    80002212:	0497e163          	bltu	a5,s1,80002254 <argraw+0x58>
    80002216:	048a                	slli	s1,s1,0x2
    80002218:	00006717          	auipc	a4,0x6
    8000221c:	5c070713          	addi	a4,a4,1472 # 800087d8 <states.0+0x30>
    80002220:	94ba                	add	s1,s1,a4
    80002222:	409c                	lw	a5,0(s1)
    80002224:	97ba                	add	a5,a5,a4
    80002226:	8782                	jr	a5
    case 0:
      return p->trapframe->a0;
    80002228:	6d3c                	ld	a5,88(a0)
    8000222a:	7ba8                	ld	a0,112(a5)
    case 5:
      return p->trapframe->a5;
  }
  panic("argraw");
  return -1;
}
    8000222c:	60e2                	ld	ra,24(sp)
    8000222e:	6442                	ld	s0,16(sp)
    80002230:	64a2                	ld	s1,8(sp)
    80002232:	6105                	addi	sp,sp,32
    80002234:	8082                	ret
      return p->trapframe->a1;
    80002236:	6d3c                	ld	a5,88(a0)
    80002238:	7fa8                	ld	a0,120(a5)
    8000223a:	bfcd                	j	8000222c <argraw+0x30>
      return p->trapframe->a2;
    8000223c:	6d3c                	ld	a5,88(a0)
    8000223e:	63c8                	ld	a0,128(a5)
    80002240:	b7f5                	j	8000222c <argraw+0x30>
      return p->trapframe->a3;
    80002242:	6d3c                	ld	a5,88(a0)
    80002244:	67c8                	ld	a0,136(a5)
    80002246:	b7dd                	j	8000222c <argraw+0x30>
      return p->trapframe->a4;
    80002248:	6d3c                	ld	a5,88(a0)
    8000224a:	6bc8                	ld	a0,144(a5)
    8000224c:	b7c5                	j	8000222c <argraw+0x30>
      return p->trapframe->a5;
    8000224e:	6d3c                	ld	a5,88(a0)
    80002250:	6fc8                	ld	a0,152(a5)
    80002252:	bfe9                	j	8000222c <argraw+0x30>
  panic("argraw");
    80002254:	00006517          	auipc	a0,0x6
    80002258:	18450513          	addi	a0,a0,388 # 800083d8 <etext+0x3d8>
    8000225c:	00004097          	auipc	ra,0x4
    80002260:	e26080e7          	jalr	-474(ra) # 80006082 <panic>

0000000080002264 <fetchaddr>:
int fetchaddr(uint64 addr, uint64 *ip) {
    80002264:	1101                	addi	sp,sp,-32
    80002266:	ec06                	sd	ra,24(sp)
    80002268:	e822                	sd	s0,16(sp)
    8000226a:	e426                	sd	s1,8(sp)
    8000226c:	e04a                	sd	s2,0(sp)
    8000226e:	1000                	addi	s0,sp,32
    80002270:	84aa                	mv	s1,a0
    80002272:	892e                	mv	s2,a1
  struct proc *p = myproc();
    80002274:	fffff097          	auipc	ra,0xfffff
    80002278:	e2e080e7          	jalr	-466(ra) # 800010a2 <myproc>
  if (addr >= p->sz ||
    8000227c:	653c                	ld	a5,72(a0)
    8000227e:	02f4f863          	bgeu	s1,a5,800022ae <fetchaddr+0x4a>
      addr + sizeof(uint64) > p->sz)  // both tests needed, in case of overflow
    80002282:	00848713          	addi	a4,s1,8
  if (addr >= p->sz ||
    80002286:	02e7e663          	bltu	a5,a4,800022b2 <fetchaddr+0x4e>
  if (copyin(p->pagetable, (char *)ip, addr, sizeof(*ip)) != 0) return -1;
    8000228a:	46a1                	li	a3,8
    8000228c:	8626                	mv	a2,s1
    8000228e:	85ca                	mv	a1,s2
    80002290:	6928                	ld	a0,80(a0)
    80002292:	fffff097          	auipc	ra,0xfffff
    80002296:	a54080e7          	jalr	-1452(ra) # 80000ce6 <copyin>
    8000229a:	00a03533          	snez	a0,a0
    8000229e:	40a00533          	neg	a0,a0
}
    800022a2:	60e2                	ld	ra,24(sp)
    800022a4:	6442                	ld	s0,16(sp)
    800022a6:	64a2                	ld	s1,8(sp)
    800022a8:	6902                	ld	s2,0(sp)
    800022aa:	6105                	addi	sp,sp,32
    800022ac:	8082                	ret
    return -1;
    800022ae:	557d                	li	a0,-1
    800022b0:	bfcd                	j	800022a2 <fetchaddr+0x3e>
    800022b2:	557d                	li	a0,-1
    800022b4:	b7fd                	j	800022a2 <fetchaddr+0x3e>

00000000800022b6 <fetchstr>:
int fetchstr(uint64 addr, char *buf, int max) {
    800022b6:	7179                	addi	sp,sp,-48
    800022b8:	f406                	sd	ra,40(sp)
    800022ba:	f022                	sd	s0,32(sp)
    800022bc:	ec26                	sd	s1,24(sp)
    800022be:	e84a                	sd	s2,16(sp)
    800022c0:	e44e                	sd	s3,8(sp)
    800022c2:	1800                	addi	s0,sp,48
    800022c4:	892a                	mv	s2,a0
    800022c6:	84ae                	mv	s1,a1
    800022c8:	89b2                	mv	s3,a2
  struct proc *p = myproc();
    800022ca:	fffff097          	auipc	ra,0xfffff
    800022ce:	dd8080e7          	jalr	-552(ra) # 800010a2 <myproc>
  if (copyinstr(p->pagetable, buf, addr, max) < 0) return -1;
    800022d2:	86ce                	mv	a3,s3
    800022d4:	864a                	mv	a2,s2
    800022d6:	85a6                	mv	a1,s1
    800022d8:	6928                	ld	a0,80(a0)
    800022da:	fffff097          	auipc	ra,0xfffff
    800022de:	a9a080e7          	jalr	-1382(ra) # 80000d74 <copyinstr>
    800022e2:	00054e63          	bltz	a0,800022fe <fetchstr+0x48>
  return strlen(buf);
    800022e6:	8526                	mv	a0,s1
    800022e8:	ffffe097          	auipc	ra,0xffffe
    800022ec:	0aa080e7          	jalr	170(ra) # 80000392 <strlen>
}
    800022f0:	70a2                	ld	ra,40(sp)
    800022f2:	7402                	ld	s0,32(sp)
    800022f4:	64e2                	ld	s1,24(sp)
    800022f6:	6942                	ld	s2,16(sp)
    800022f8:	69a2                	ld	s3,8(sp)
    800022fa:	6145                	addi	sp,sp,48
    800022fc:	8082                	ret
  if (copyinstr(p->pagetable, buf, addr, max) < 0) return -1;
    800022fe:	557d                	li	a0,-1
    80002300:	bfc5                	j	800022f0 <fetchstr+0x3a>

0000000080002302 <argint>:

// Fetch the nth 32-bit system call argument.
void argint(int n, int *ip) { *ip = argraw(n); }
    80002302:	1101                	addi	sp,sp,-32
    80002304:	ec06                	sd	ra,24(sp)
    80002306:	e822                	sd	s0,16(sp)
    80002308:	e426                	sd	s1,8(sp)
    8000230a:	1000                	addi	s0,sp,32
    8000230c:	84ae                	mv	s1,a1
    8000230e:	00000097          	auipc	ra,0x0
    80002312:	eee080e7          	jalr	-274(ra) # 800021fc <argraw>
    80002316:	c088                	sw	a0,0(s1)
    80002318:	60e2                	ld	ra,24(sp)
    8000231a:	6442                	ld	s0,16(sp)
    8000231c:	64a2                	ld	s1,8(sp)
    8000231e:	6105                	addi	sp,sp,32
    80002320:	8082                	ret

0000000080002322 <argaddr>:

// Retrieve an argument as a pointer.
// Doesn't check for legality, since
// copyin/copyout will do that.
void argaddr(int n, uint64 *ip) { *ip = argraw(n); }
    80002322:	1101                	addi	sp,sp,-32
    80002324:	ec06                	sd	ra,24(sp)
    80002326:	e822                	sd	s0,16(sp)
    80002328:	e426                	sd	s1,8(sp)
    8000232a:	1000                	addi	s0,sp,32
    8000232c:	84ae                	mv	s1,a1
    8000232e:	00000097          	auipc	ra,0x0
    80002332:	ece080e7          	jalr	-306(ra) # 800021fc <argraw>
    80002336:	e088                	sd	a0,0(s1)
    80002338:	60e2                	ld	ra,24(sp)
    8000233a:	6442                	ld	s0,16(sp)
    8000233c:	64a2                	ld	s1,8(sp)
    8000233e:	6105                	addi	sp,sp,32
    80002340:	8082                	ret

0000000080002342 <argstr>:

// Fetch the nth word-sized system call argument as a null-terminated string.
// Copies into buf, at most max.
// Returns string length if OK (including nul), -1 if error.
int argstr(int n, char *buf, int max) {
    80002342:	7179                	addi	sp,sp,-48
    80002344:	f406                	sd	ra,40(sp)
    80002346:	f022                	sd	s0,32(sp)
    80002348:	ec26                	sd	s1,24(sp)
    8000234a:	e84a                	sd	s2,16(sp)
    8000234c:	1800                	addi	s0,sp,48
    8000234e:	84ae                	mv	s1,a1
    80002350:	8932                	mv	s2,a2
  uint64 addr;
  argaddr(n, &addr);
    80002352:	fd840593          	addi	a1,s0,-40
    80002356:	00000097          	auipc	ra,0x0
    8000235a:	fcc080e7          	jalr	-52(ra) # 80002322 <argaddr>
  return fetchstr(addr, buf, max);
    8000235e:	864a                	mv	a2,s2
    80002360:	85a6                	mv	a1,s1
    80002362:	fd843503          	ld	a0,-40(s0)
    80002366:	00000097          	auipc	ra,0x0
    8000236a:	f50080e7          	jalr	-176(ra) # 800022b6 <fetchstr>
}
    8000236e:	70a2                	ld	ra,40(sp)
    80002370:	7402                	ld	s0,32(sp)
    80002372:	64e2                	ld	s1,24(sp)
    80002374:	6942                	ld	s2,16(sp)
    80002376:	6145                	addi	sp,sp,48
    80002378:	8082                	ret

000000008000237a <syscall>:
    [SYS_mknod] = sys_mknod,   [SYS_unlink] = sys_unlink,
    [SYS_link] = sys_link,     [SYS_mkdir] = sys_mkdir,
    [SYS_close] = sys_close,
};

void syscall(void) {
    8000237a:	1101                	addi	sp,sp,-32
    8000237c:	ec06                	sd	ra,24(sp)
    8000237e:	e822                	sd	s0,16(sp)
    80002380:	e426                	sd	s1,8(sp)
    80002382:	e04a                	sd	s2,0(sp)
    80002384:	1000                	addi	s0,sp,32
  int num;
  struct proc *p = myproc();
    80002386:	fffff097          	auipc	ra,0xfffff
    8000238a:	d1c080e7          	jalr	-740(ra) # 800010a2 <myproc>
    8000238e:	84aa                	mv	s1,a0

  num = p->trapframe->a7;
    80002390:	05853903          	ld	s2,88(a0)
    80002394:	0a893783          	ld	a5,168(s2)
    80002398:	0007869b          	sext.w	a3,a5
  if (num > 0 && num < NELEM(syscalls) && syscalls[num]) {
    8000239c:	37fd                	addiw	a5,a5,-1
    8000239e:	4751                	li	a4,20
    800023a0:	00f76f63          	bltu	a4,a5,800023be <syscall+0x44>
    800023a4:	00369713          	slli	a4,a3,0x3
    800023a8:	00006797          	auipc	a5,0x6
    800023ac:	44878793          	addi	a5,a5,1096 # 800087f0 <syscalls>
    800023b0:	97ba                	add	a5,a5,a4
    800023b2:	639c                	ld	a5,0(a5)
    800023b4:	c789                	beqz	a5,800023be <syscall+0x44>
    // Use num to lookup the system call function for num, call it,
    // and store its return value in p->trapframe->a0
    p->trapframe->a0 = syscalls[num]();
    800023b6:	9782                	jalr	a5
    800023b8:	06a93823          	sd	a0,112(s2)
    800023bc:	a839                	j	800023da <syscall+0x60>
  } else {
    printf("%d %s: unknown sys call %d\n", p->pid, p->name, num);
    800023be:	15848613          	addi	a2,s1,344
    800023c2:	588c                	lw	a1,48(s1)
    800023c4:	00006517          	auipc	a0,0x6
    800023c8:	01c50513          	addi	a0,a0,28 # 800083e0 <etext+0x3e0>
    800023cc:	00004097          	auipc	ra,0x4
    800023d0:	d00080e7          	jalr	-768(ra) # 800060cc <printf>
    p->trapframe->a0 = -1;
    800023d4:	6cbc                	ld	a5,88(s1)
    800023d6:	577d                	li	a4,-1
    800023d8:	fbb8                	sd	a4,112(a5)
  }
}
    800023da:	60e2                	ld	ra,24(sp)
    800023dc:	6442                	ld	s0,16(sp)
    800023de:	64a2                	ld	s1,8(sp)
    800023e0:	6902                	ld	s2,0(sp)
    800023e2:	6105                	addi	sp,sp,32
    800023e4:	8082                	ret

00000000800023e6 <sys_exit>:
#include "defs.h"
#include "proc.h"
#include "types.h"

uint64 sys_exit(void) {
    800023e6:	1101                	addi	sp,sp,-32
    800023e8:	ec06                	sd	ra,24(sp)
    800023ea:	e822                	sd	s0,16(sp)
    800023ec:	1000                	addi	s0,sp,32
  int n;
  argint(0, &n);
    800023ee:	fec40593          	addi	a1,s0,-20
    800023f2:	4501                	li	a0,0
    800023f4:	00000097          	auipc	ra,0x0
    800023f8:	f0e080e7          	jalr	-242(ra) # 80002302 <argint>
  exit(n);
    800023fc:	fec42503          	lw	a0,-20(s0)
    80002400:	fffff097          	auipc	ra,0xfffff
    80002404:	484080e7          	jalr	1156(ra) # 80001884 <exit>
  return 0;  // not reached
}
    80002408:	4501                	li	a0,0
    8000240a:	60e2                	ld	ra,24(sp)
    8000240c:	6442                	ld	s0,16(sp)
    8000240e:	6105                	addi	sp,sp,32
    80002410:	8082                	ret

0000000080002412 <sys_getpid>:

uint64 sys_getpid(void) { return myproc()->pid; }
    80002412:	1141                	addi	sp,sp,-16
    80002414:	e406                	sd	ra,8(sp)
    80002416:	e022                	sd	s0,0(sp)
    80002418:	0800                	addi	s0,sp,16
    8000241a:	fffff097          	auipc	ra,0xfffff
    8000241e:	c88080e7          	jalr	-888(ra) # 800010a2 <myproc>
    80002422:	5908                	lw	a0,48(a0)
    80002424:	60a2                	ld	ra,8(sp)
    80002426:	6402                	ld	s0,0(sp)
    80002428:	0141                	addi	sp,sp,16
    8000242a:	8082                	ret

000000008000242c <sys_fork>:

uint64 sys_fork(void) { return fork(); }
    8000242c:	1141                	addi	sp,sp,-16
    8000242e:	e406                	sd	ra,8(sp)
    80002430:	e022                	sd	s0,0(sp)
    80002432:	0800                	addi	s0,sp,16
    80002434:	fffff097          	auipc	ra,0xfffff
    80002438:	028080e7          	jalr	40(ra) # 8000145c <fork>
    8000243c:	60a2                	ld	ra,8(sp)
    8000243e:	6402                	ld	s0,0(sp)
    80002440:	0141                	addi	sp,sp,16
    80002442:	8082                	ret

0000000080002444 <sys_wait>:

uint64 sys_wait(void) {
    80002444:	1101                	addi	sp,sp,-32
    80002446:	ec06                	sd	ra,24(sp)
    80002448:	e822                	sd	s0,16(sp)
    8000244a:	1000                	addi	s0,sp,32
  uint64 p;
  argaddr(0, &p);
    8000244c:	fe840593          	addi	a1,s0,-24
    80002450:	4501                	li	a0,0
    80002452:	00000097          	auipc	ra,0x0
    80002456:	ed0080e7          	jalr	-304(ra) # 80002322 <argaddr>
  return wait(p);
    8000245a:	fe843503          	ld	a0,-24(s0)
    8000245e:	fffff097          	auipc	ra,0xfffff
    80002462:	5cc080e7          	jalr	1484(ra) # 80001a2a <wait>
}
    80002466:	60e2                	ld	ra,24(sp)
    80002468:	6442                	ld	s0,16(sp)
    8000246a:	6105                	addi	sp,sp,32
    8000246c:	8082                	ret

000000008000246e <sys_sbrk>:

uint64 sys_sbrk(void) {
    8000246e:	7179                	addi	sp,sp,-48
    80002470:	f406                	sd	ra,40(sp)
    80002472:	f022                	sd	s0,32(sp)
    80002474:	ec26                	sd	s1,24(sp)
    80002476:	1800                	addi	s0,sp,48
  uint64 addr;
  int n;

  argint(0, &n);
    80002478:	fdc40593          	addi	a1,s0,-36
    8000247c:	4501                	li	a0,0
    8000247e:	00000097          	auipc	ra,0x0
    80002482:	e84080e7          	jalr	-380(ra) # 80002302 <argint>
  addr = myproc()->sz;
    80002486:	fffff097          	auipc	ra,0xfffff
    8000248a:	c1c080e7          	jalr	-996(ra) # 800010a2 <myproc>
    8000248e:	6524                	ld	s1,72(a0)
  if (growproc(n) < 0) return -1;
    80002490:	fdc42503          	lw	a0,-36(s0)
    80002494:	fffff097          	auipc	ra,0xfffff
    80002498:	f6c080e7          	jalr	-148(ra) # 80001400 <growproc>
    8000249c:	00054863          	bltz	a0,800024ac <sys_sbrk+0x3e>
  return addr;
}
    800024a0:	8526                	mv	a0,s1
    800024a2:	70a2                	ld	ra,40(sp)
    800024a4:	7402                	ld	s0,32(sp)
    800024a6:	64e2                	ld	s1,24(sp)
    800024a8:	6145                	addi	sp,sp,48
    800024aa:	8082                	ret
  if (growproc(n) < 0) return -1;
    800024ac:	54fd                	li	s1,-1
    800024ae:	bfcd                	j	800024a0 <sys_sbrk+0x32>

00000000800024b0 <sys_sleep>:

uint64 sys_sleep(void) {
    800024b0:	7139                	addi	sp,sp,-64
    800024b2:	fc06                	sd	ra,56(sp)
    800024b4:	f822                	sd	s0,48(sp)
    800024b6:	f04a                	sd	s2,32(sp)
    800024b8:	0080                	addi	s0,sp,64
  int n;
  uint ticks0;

  argint(0, &n);
    800024ba:	fcc40593          	addi	a1,s0,-52
    800024be:	4501                	li	a0,0
    800024c0:	00000097          	auipc	ra,0x0
    800024c4:	e42080e7          	jalr	-446(ra) # 80002302 <argint>
  if (n < 0) n = 0;
    800024c8:	fcc42783          	lw	a5,-52(s0)
    800024cc:	0807c163          	bltz	a5,8000254e <sys_sleep+0x9e>
  acquire(&tickslock);
    800024d0:	0002f517          	auipc	a0,0x2f
    800024d4:	d2850513          	addi	a0,a0,-728 # 800311f8 <tickslock>
    800024d8:	00004097          	auipc	ra,0x4
    800024dc:	124080e7          	jalr	292(ra) # 800065fc <acquire>
  ticks0 = ticks;
    800024e0:	00009917          	auipc	s2,0x9
    800024e4:	e9892903          	lw	s2,-360(s2) # 8000b378 <ticks>
  while (ticks - ticks0 < n) {
    800024e8:	fcc42783          	lw	a5,-52(s0)
    800024ec:	c3b9                	beqz	a5,80002532 <sys_sleep+0x82>
    800024ee:	f426                	sd	s1,40(sp)
    800024f0:	ec4e                	sd	s3,24(sp)
    if (killed(myproc())) {
      release(&tickslock);
      return -1;
    }
    sleep(&ticks, &tickslock);
    800024f2:	0002f997          	auipc	s3,0x2f
    800024f6:	d0698993          	addi	s3,s3,-762 # 800311f8 <tickslock>
    800024fa:	00009497          	auipc	s1,0x9
    800024fe:	e7e48493          	addi	s1,s1,-386 # 8000b378 <ticks>
    if (killed(myproc())) {
    80002502:	fffff097          	auipc	ra,0xfffff
    80002506:	ba0080e7          	jalr	-1120(ra) # 800010a2 <myproc>
    8000250a:	fffff097          	auipc	ra,0xfffff
    8000250e:	4ee080e7          	jalr	1262(ra) # 800019f8 <killed>
    80002512:	e129                	bnez	a0,80002554 <sys_sleep+0xa4>
    sleep(&ticks, &tickslock);
    80002514:	85ce                	mv	a1,s3
    80002516:	8526                	mv	a0,s1
    80002518:	fffff097          	auipc	ra,0xfffff
    8000251c:	238080e7          	jalr	568(ra) # 80001750 <sleep>
  while (ticks - ticks0 < n) {
    80002520:	409c                	lw	a5,0(s1)
    80002522:	412787bb          	subw	a5,a5,s2
    80002526:	fcc42703          	lw	a4,-52(s0)
    8000252a:	fce7ece3          	bltu	a5,a4,80002502 <sys_sleep+0x52>
    8000252e:	74a2                	ld	s1,40(sp)
    80002530:	69e2                	ld	s3,24(sp)
  }
  release(&tickslock);
    80002532:	0002f517          	auipc	a0,0x2f
    80002536:	cc650513          	addi	a0,a0,-826 # 800311f8 <tickslock>
    8000253a:	00004097          	auipc	ra,0x4
    8000253e:	176080e7          	jalr	374(ra) # 800066b0 <release>
  return 0;
    80002542:	4501                	li	a0,0
}
    80002544:	70e2                	ld	ra,56(sp)
    80002546:	7442                	ld	s0,48(sp)
    80002548:	7902                	ld	s2,32(sp)
    8000254a:	6121                	addi	sp,sp,64
    8000254c:	8082                	ret
  if (n < 0) n = 0;
    8000254e:	fc042623          	sw	zero,-52(s0)
    80002552:	bfbd                	j	800024d0 <sys_sleep+0x20>
      release(&tickslock);
    80002554:	0002f517          	auipc	a0,0x2f
    80002558:	ca450513          	addi	a0,a0,-860 # 800311f8 <tickslock>
    8000255c:	00004097          	auipc	ra,0x4
    80002560:	154080e7          	jalr	340(ra) # 800066b0 <release>
      return -1;
    80002564:	557d                	li	a0,-1
    80002566:	74a2                	ld	s1,40(sp)
    80002568:	69e2                	ld	s3,24(sp)
    8000256a:	bfe9                	j	80002544 <sys_sleep+0x94>

000000008000256c <sys_kill>:

uint64 sys_kill(void) {
    8000256c:	1101                	addi	sp,sp,-32
    8000256e:	ec06                	sd	ra,24(sp)
    80002570:	e822                	sd	s0,16(sp)
    80002572:	1000                	addi	s0,sp,32
  int pid;

  argint(0, &pid);
    80002574:	fec40593          	addi	a1,s0,-20
    80002578:	4501                	li	a0,0
    8000257a:	00000097          	auipc	ra,0x0
    8000257e:	d88080e7          	jalr	-632(ra) # 80002302 <argint>
  return kill(pid);
    80002582:	fec42503          	lw	a0,-20(s0)
    80002586:	fffff097          	auipc	ra,0xfffff
    8000258a:	3d4080e7          	jalr	980(ra) # 8000195a <kill>
}
    8000258e:	60e2                	ld	ra,24(sp)
    80002590:	6442                	ld	s0,16(sp)
    80002592:	6105                	addi	sp,sp,32
    80002594:	8082                	ret

0000000080002596 <sys_uptime>:

// return how many clock tick interrupts have occurred
// since start.
uint64 sys_uptime(void) {
    80002596:	1101                	addi	sp,sp,-32
    80002598:	ec06                	sd	ra,24(sp)
    8000259a:	e822                	sd	s0,16(sp)
    8000259c:	e426                	sd	s1,8(sp)
    8000259e:	1000                	addi	s0,sp,32
  uint xticks;

  acquire(&tickslock);
    800025a0:	0002f517          	auipc	a0,0x2f
    800025a4:	c5850513          	addi	a0,a0,-936 # 800311f8 <tickslock>
    800025a8:	00004097          	auipc	ra,0x4
    800025ac:	054080e7          	jalr	84(ra) # 800065fc <acquire>
  xticks = ticks;
    800025b0:	00009497          	auipc	s1,0x9
    800025b4:	dc84a483          	lw	s1,-568(s1) # 8000b378 <ticks>
  release(&tickslock);
    800025b8:	0002f517          	auipc	a0,0x2f
    800025bc:	c4050513          	addi	a0,a0,-960 # 800311f8 <tickslock>
    800025c0:	00004097          	auipc	ra,0x4
    800025c4:	0f0080e7          	jalr	240(ra) # 800066b0 <release>
  return xticks;
}
    800025c8:	02049513          	slli	a0,s1,0x20
    800025cc:	9101                	srli	a0,a0,0x20
    800025ce:	60e2                	ld	ra,24(sp)
    800025d0:	6442                	ld	s0,16(sp)
    800025d2:	64a2                	ld	s1,8(sp)
    800025d4:	6105                	addi	sp,sp,32
    800025d6:	8082                	ret

00000000800025d8 <binit>:
  // Sorted by how recently the buffer was used.
  // head.next is most recent, head.prev is least.
  struct buf head;
} bcache;

void binit(void) {
    800025d8:	7179                	addi	sp,sp,-48
    800025da:	f406                	sd	ra,40(sp)
    800025dc:	f022                	sd	s0,32(sp)
    800025de:	ec26                	sd	s1,24(sp)
    800025e0:	e84a                	sd	s2,16(sp)
    800025e2:	e44e                	sd	s3,8(sp)
    800025e4:	e052                	sd	s4,0(sp)
    800025e6:	1800                	addi	s0,sp,48
  struct buf *b;

  initlock(&bcache.lock, "bcache");
    800025e8:	00006597          	auipc	a1,0x6
    800025ec:	e1858593          	addi	a1,a1,-488 # 80008400 <etext+0x400>
    800025f0:	0002f517          	auipc	a0,0x2f
    800025f4:	c2050513          	addi	a0,a0,-992 # 80031210 <bcache>
    800025f8:	00004097          	auipc	ra,0x4
    800025fc:	f74080e7          	jalr	-140(ra) # 8000656c <initlock>

  // Create linked list of buffers
  bcache.head.prev = &bcache.head;
    80002600:	00037797          	auipc	a5,0x37
    80002604:	c1078793          	addi	a5,a5,-1008 # 80039210 <bcache+0x8000>
    80002608:	00037717          	auipc	a4,0x37
    8000260c:	e7070713          	addi	a4,a4,-400 # 80039478 <bcache+0x8268>
    80002610:	2ae7b823          	sd	a4,688(a5)
  bcache.head.next = &bcache.head;
    80002614:	2ae7bc23          	sd	a4,696(a5)
  for (b = bcache.buf; b < bcache.buf + NBUF; b++) {
    80002618:	0002f497          	auipc	s1,0x2f
    8000261c:	c1048493          	addi	s1,s1,-1008 # 80031228 <bcache+0x18>
    b->next = bcache.head.next;
    80002620:	893e                	mv	s2,a5
    b->prev = &bcache.head;
    80002622:	89ba                	mv	s3,a4
    initsleeplock(&b->lock, "buffer");
    80002624:	00006a17          	auipc	s4,0x6
    80002628:	de4a0a13          	addi	s4,s4,-540 # 80008408 <etext+0x408>
    b->next = bcache.head.next;
    8000262c:	2b893783          	ld	a5,696(s2)
    80002630:	e8bc                	sd	a5,80(s1)
    b->prev = &bcache.head;
    80002632:	0534b423          	sd	s3,72(s1)
    initsleeplock(&b->lock, "buffer");
    80002636:	85d2                	mv	a1,s4
    80002638:	01048513          	addi	a0,s1,16
    8000263c:	00001097          	auipc	ra,0x1
    80002640:	4e8080e7          	jalr	1256(ra) # 80003b24 <initsleeplock>
    bcache.head.next->prev = b;
    80002644:	2b893783          	ld	a5,696(s2)
    80002648:	e7a4                	sd	s1,72(a5)
    bcache.head.next = b;
    8000264a:	2a993c23          	sd	s1,696(s2)
  for (b = bcache.buf; b < bcache.buf + NBUF; b++) {
    8000264e:	45848493          	addi	s1,s1,1112
    80002652:	fd349de3          	bne	s1,s3,8000262c <binit+0x54>
  }
}
    80002656:	70a2                	ld	ra,40(sp)
    80002658:	7402                	ld	s0,32(sp)
    8000265a:	64e2                	ld	s1,24(sp)
    8000265c:	6942                	ld	s2,16(sp)
    8000265e:	69a2                	ld	s3,8(sp)
    80002660:	6a02                	ld	s4,0(sp)
    80002662:	6145                	addi	sp,sp,48
    80002664:	8082                	ret

0000000080002666 <bread>:
  }
  panic("bget: no buffers");
}

// Return a locked buf with the contents of the indicated block.
struct buf *bread(uint dev, uint blockno) {
    80002666:	7179                	addi	sp,sp,-48
    80002668:	f406                	sd	ra,40(sp)
    8000266a:	f022                	sd	s0,32(sp)
    8000266c:	ec26                	sd	s1,24(sp)
    8000266e:	e84a                	sd	s2,16(sp)
    80002670:	e44e                	sd	s3,8(sp)
    80002672:	1800                	addi	s0,sp,48
    80002674:	892a                	mv	s2,a0
    80002676:	89ae                	mv	s3,a1
  acquire(&bcache.lock);
    80002678:	0002f517          	auipc	a0,0x2f
    8000267c:	b9850513          	addi	a0,a0,-1128 # 80031210 <bcache>
    80002680:	00004097          	auipc	ra,0x4
    80002684:	f7c080e7          	jalr	-132(ra) # 800065fc <acquire>
  for (b = bcache.head.next; b != &bcache.head; b = b->next) {
    80002688:	00037497          	auipc	s1,0x37
    8000268c:	e404b483          	ld	s1,-448(s1) # 800394c8 <bcache+0x82b8>
    80002690:	00037797          	auipc	a5,0x37
    80002694:	de878793          	addi	a5,a5,-536 # 80039478 <bcache+0x8268>
    80002698:	02f48f63          	beq	s1,a5,800026d6 <bread+0x70>
    8000269c:	873e                	mv	a4,a5
    8000269e:	a021                	j	800026a6 <bread+0x40>
    800026a0:	68a4                	ld	s1,80(s1)
    800026a2:	02e48a63          	beq	s1,a4,800026d6 <bread+0x70>
    if (b->dev == dev && b->blockno == blockno) {
    800026a6:	449c                	lw	a5,8(s1)
    800026a8:	ff279ce3          	bne	a5,s2,800026a0 <bread+0x3a>
    800026ac:	44dc                	lw	a5,12(s1)
    800026ae:	ff3799e3          	bne	a5,s3,800026a0 <bread+0x3a>
      b->refcnt++;
    800026b2:	40bc                	lw	a5,64(s1)
    800026b4:	2785                	addiw	a5,a5,1
    800026b6:	c0bc                	sw	a5,64(s1)
      release(&bcache.lock);
    800026b8:	0002f517          	auipc	a0,0x2f
    800026bc:	b5850513          	addi	a0,a0,-1192 # 80031210 <bcache>
    800026c0:	00004097          	auipc	ra,0x4
    800026c4:	ff0080e7          	jalr	-16(ra) # 800066b0 <release>
      acquiresleep(&b->lock);
    800026c8:	01048513          	addi	a0,s1,16
    800026cc:	00001097          	auipc	ra,0x1
    800026d0:	492080e7          	jalr	1170(ra) # 80003b5e <acquiresleep>
      return b;
    800026d4:	a8b9                	j	80002732 <bread+0xcc>
  for (b = bcache.head.prev; b != &bcache.head; b = b->prev) {
    800026d6:	00037497          	auipc	s1,0x37
    800026da:	dea4b483          	ld	s1,-534(s1) # 800394c0 <bcache+0x82b0>
    800026de:	00037797          	auipc	a5,0x37
    800026e2:	d9a78793          	addi	a5,a5,-614 # 80039478 <bcache+0x8268>
    800026e6:	00f48863          	beq	s1,a5,800026f6 <bread+0x90>
    800026ea:	873e                	mv	a4,a5
    if (b->refcnt == 0) {
    800026ec:	40bc                	lw	a5,64(s1)
    800026ee:	cf81                	beqz	a5,80002706 <bread+0xa0>
  for (b = bcache.head.prev; b != &bcache.head; b = b->prev) {
    800026f0:	64a4                	ld	s1,72(s1)
    800026f2:	fee49de3          	bne	s1,a4,800026ec <bread+0x86>
  panic("bget: no buffers");
    800026f6:	00006517          	auipc	a0,0x6
    800026fa:	d1a50513          	addi	a0,a0,-742 # 80008410 <etext+0x410>
    800026fe:	00004097          	auipc	ra,0x4
    80002702:	984080e7          	jalr	-1660(ra) # 80006082 <panic>
      b->dev = dev;
    80002706:	0124a423          	sw	s2,8(s1)
      b->blockno = blockno;
    8000270a:	0134a623          	sw	s3,12(s1)
      b->valid = 0;
    8000270e:	0004a023          	sw	zero,0(s1)
      b->refcnt = 1;
    80002712:	4785                	li	a5,1
    80002714:	c0bc                	sw	a5,64(s1)
      release(&bcache.lock);
    80002716:	0002f517          	auipc	a0,0x2f
    8000271a:	afa50513          	addi	a0,a0,-1286 # 80031210 <bcache>
    8000271e:	00004097          	auipc	ra,0x4
    80002722:	f92080e7          	jalr	-110(ra) # 800066b0 <release>
      acquiresleep(&b->lock);
    80002726:	01048513          	addi	a0,s1,16
    8000272a:	00001097          	auipc	ra,0x1
    8000272e:	434080e7          	jalr	1076(ra) # 80003b5e <acquiresleep>
  struct buf *b;

  b = bget(dev, blockno);
  if (!b->valid) {
    80002732:	409c                	lw	a5,0(s1)
    80002734:	cb89                	beqz	a5,80002746 <bread+0xe0>
    virtio_disk_rw(b, 0);
    b->valid = 1;
  }
  return b;
}
    80002736:	8526                	mv	a0,s1
    80002738:	70a2                	ld	ra,40(sp)
    8000273a:	7402                	ld	s0,32(sp)
    8000273c:	64e2                	ld	s1,24(sp)
    8000273e:	6942                	ld	s2,16(sp)
    80002740:	69a2                	ld	s3,8(sp)
    80002742:	6145                	addi	sp,sp,48
    80002744:	8082                	ret
    virtio_disk_rw(b, 0);
    80002746:	4581                	li	a1,0
    80002748:	8526                	mv	a0,s1
    8000274a:	00003097          	auipc	ra,0x3
    8000274e:	10e080e7          	jalr	270(ra) # 80005858 <virtio_disk_rw>
    b->valid = 1;
    80002752:	4785                	li	a5,1
    80002754:	c09c                	sw	a5,0(s1)
  return b;
    80002756:	b7c5                	j	80002736 <bread+0xd0>

0000000080002758 <bwrite>:

// Write b's contents to disk.  Must be locked.
void bwrite(struct buf *b) {
    80002758:	1101                	addi	sp,sp,-32
    8000275a:	ec06                	sd	ra,24(sp)
    8000275c:	e822                	sd	s0,16(sp)
    8000275e:	e426                	sd	s1,8(sp)
    80002760:	1000                	addi	s0,sp,32
    80002762:	84aa                	mv	s1,a0
  if (!holdingsleep(&b->lock)) panic("bwrite");
    80002764:	0541                	addi	a0,a0,16
    80002766:	00001097          	auipc	ra,0x1
    8000276a:	492080e7          	jalr	1170(ra) # 80003bf8 <holdingsleep>
    8000276e:	cd01                	beqz	a0,80002786 <bwrite+0x2e>
  virtio_disk_rw(b, 1);
    80002770:	4585                	li	a1,1
    80002772:	8526                	mv	a0,s1
    80002774:	00003097          	auipc	ra,0x3
    80002778:	0e4080e7          	jalr	228(ra) # 80005858 <virtio_disk_rw>
}
    8000277c:	60e2                	ld	ra,24(sp)
    8000277e:	6442                	ld	s0,16(sp)
    80002780:	64a2                	ld	s1,8(sp)
    80002782:	6105                	addi	sp,sp,32
    80002784:	8082                	ret
  if (!holdingsleep(&b->lock)) panic("bwrite");
    80002786:	00006517          	auipc	a0,0x6
    8000278a:	ca250513          	addi	a0,a0,-862 # 80008428 <etext+0x428>
    8000278e:	00004097          	auipc	ra,0x4
    80002792:	8f4080e7          	jalr	-1804(ra) # 80006082 <panic>

0000000080002796 <brelse>:

// Release a locked buffer.
// Move to the head of the most-recently-used list.
void brelse(struct buf *b) {
    80002796:	1101                	addi	sp,sp,-32
    80002798:	ec06                	sd	ra,24(sp)
    8000279a:	e822                	sd	s0,16(sp)
    8000279c:	e426                	sd	s1,8(sp)
    8000279e:	e04a                	sd	s2,0(sp)
    800027a0:	1000                	addi	s0,sp,32
    800027a2:	84aa                	mv	s1,a0
  if (!holdingsleep(&b->lock)) panic("brelse");
    800027a4:	01050913          	addi	s2,a0,16
    800027a8:	854a                	mv	a0,s2
    800027aa:	00001097          	auipc	ra,0x1
    800027ae:	44e080e7          	jalr	1102(ra) # 80003bf8 <holdingsleep>
    800027b2:	c925                	beqz	a0,80002822 <brelse+0x8c>

  releasesleep(&b->lock);
    800027b4:	854a                	mv	a0,s2
    800027b6:	00001097          	auipc	ra,0x1
    800027ba:	3fe080e7          	jalr	1022(ra) # 80003bb4 <releasesleep>

  acquire(&bcache.lock);
    800027be:	0002f517          	auipc	a0,0x2f
    800027c2:	a5250513          	addi	a0,a0,-1454 # 80031210 <bcache>
    800027c6:	00004097          	auipc	ra,0x4
    800027ca:	e36080e7          	jalr	-458(ra) # 800065fc <acquire>
  b->refcnt--;
    800027ce:	40bc                	lw	a5,64(s1)
    800027d0:	37fd                	addiw	a5,a5,-1
    800027d2:	0007871b          	sext.w	a4,a5
    800027d6:	c0bc                	sw	a5,64(s1)
  if (b->refcnt == 0) {
    800027d8:	e71d                	bnez	a4,80002806 <brelse+0x70>
    // no one is waiting for it.
    b->next->prev = b->prev;
    800027da:	68b8                	ld	a4,80(s1)
    800027dc:	64bc                	ld	a5,72(s1)
    800027de:	e73c                	sd	a5,72(a4)
    b->prev->next = b->next;
    800027e0:	68b8                	ld	a4,80(s1)
    800027e2:	ebb8                	sd	a4,80(a5)
    b->next = bcache.head.next;
    800027e4:	00037797          	auipc	a5,0x37
    800027e8:	a2c78793          	addi	a5,a5,-1492 # 80039210 <bcache+0x8000>
    800027ec:	2b87b703          	ld	a4,696(a5)
    800027f0:	e8b8                	sd	a4,80(s1)
    b->prev = &bcache.head;
    800027f2:	00037717          	auipc	a4,0x37
    800027f6:	c8670713          	addi	a4,a4,-890 # 80039478 <bcache+0x8268>
    800027fa:	e4b8                	sd	a4,72(s1)
    bcache.head.next->prev = b;
    800027fc:	2b87b703          	ld	a4,696(a5)
    80002800:	e724                	sd	s1,72(a4)
    bcache.head.next = b;
    80002802:	2a97bc23          	sd	s1,696(a5)
  }

  release(&bcache.lock);
    80002806:	0002f517          	auipc	a0,0x2f
    8000280a:	a0a50513          	addi	a0,a0,-1526 # 80031210 <bcache>
    8000280e:	00004097          	auipc	ra,0x4
    80002812:	ea2080e7          	jalr	-350(ra) # 800066b0 <release>
}
    80002816:	60e2                	ld	ra,24(sp)
    80002818:	6442                	ld	s0,16(sp)
    8000281a:	64a2                	ld	s1,8(sp)
    8000281c:	6902                	ld	s2,0(sp)
    8000281e:	6105                	addi	sp,sp,32
    80002820:	8082                	ret
  if (!holdingsleep(&b->lock)) panic("brelse");
    80002822:	00006517          	auipc	a0,0x6
    80002826:	c0e50513          	addi	a0,a0,-1010 # 80008430 <etext+0x430>
    8000282a:	00004097          	auipc	ra,0x4
    8000282e:	858080e7          	jalr	-1960(ra) # 80006082 <panic>

0000000080002832 <bpin>:

void bpin(struct buf *b) {
    80002832:	1101                	addi	sp,sp,-32
    80002834:	ec06                	sd	ra,24(sp)
    80002836:	e822                	sd	s0,16(sp)
    80002838:	e426                	sd	s1,8(sp)
    8000283a:	1000                	addi	s0,sp,32
    8000283c:	84aa                	mv	s1,a0
  acquire(&bcache.lock);
    8000283e:	0002f517          	auipc	a0,0x2f
    80002842:	9d250513          	addi	a0,a0,-1582 # 80031210 <bcache>
    80002846:	00004097          	auipc	ra,0x4
    8000284a:	db6080e7          	jalr	-586(ra) # 800065fc <acquire>
  b->refcnt++;
    8000284e:	40bc                	lw	a5,64(s1)
    80002850:	2785                	addiw	a5,a5,1
    80002852:	c0bc                	sw	a5,64(s1)
  release(&bcache.lock);
    80002854:	0002f517          	auipc	a0,0x2f
    80002858:	9bc50513          	addi	a0,a0,-1604 # 80031210 <bcache>
    8000285c:	00004097          	auipc	ra,0x4
    80002860:	e54080e7          	jalr	-428(ra) # 800066b0 <release>
}
    80002864:	60e2                	ld	ra,24(sp)
    80002866:	6442                	ld	s0,16(sp)
    80002868:	64a2                	ld	s1,8(sp)
    8000286a:	6105                	addi	sp,sp,32
    8000286c:	8082                	ret

000000008000286e <bunpin>:

void bunpin(struct buf *b) {
    8000286e:	1101                	addi	sp,sp,-32
    80002870:	ec06                	sd	ra,24(sp)
    80002872:	e822                	sd	s0,16(sp)
    80002874:	e426                	sd	s1,8(sp)
    80002876:	1000                	addi	s0,sp,32
    80002878:	84aa                	mv	s1,a0
  acquire(&bcache.lock);
    8000287a:	0002f517          	auipc	a0,0x2f
    8000287e:	99650513          	addi	a0,a0,-1642 # 80031210 <bcache>
    80002882:	00004097          	auipc	ra,0x4
    80002886:	d7a080e7          	jalr	-646(ra) # 800065fc <acquire>
  b->refcnt--;
    8000288a:	40bc                	lw	a5,64(s1)
    8000288c:	37fd                	addiw	a5,a5,-1
    8000288e:	c0bc                	sw	a5,64(s1)
  release(&bcache.lock);
    80002890:	0002f517          	auipc	a0,0x2f
    80002894:	98050513          	addi	a0,a0,-1664 # 80031210 <bcache>
    80002898:	00004097          	auipc	ra,0x4
    8000289c:	e18080e7          	jalr	-488(ra) # 800066b0 <release>
}
    800028a0:	60e2                	ld	ra,24(sp)
    800028a2:	6442                	ld	s0,16(sp)
    800028a4:	64a2                	ld	s1,8(sp)
    800028a6:	6105                	addi	sp,sp,32
    800028a8:	8082                	ret

00000000800028aa <bfree>:
  printf("balloc: out of blocks\n");
  return 0;
}

// Free a disk block.
static void bfree(int dev, uint b) {
    800028aa:	1101                	addi	sp,sp,-32
    800028ac:	ec06                	sd	ra,24(sp)
    800028ae:	e822                	sd	s0,16(sp)
    800028b0:	e426                	sd	s1,8(sp)
    800028b2:	e04a                	sd	s2,0(sp)
    800028b4:	1000                	addi	s0,sp,32
    800028b6:	84ae                	mv	s1,a1
  struct buf *bp;
  int bi, m;

  bp = bread(dev, BBLOCK(b, sb));
    800028b8:	00d5d59b          	srliw	a1,a1,0xd
    800028bc:	00037797          	auipc	a5,0x37
    800028c0:	0307a783          	lw	a5,48(a5) # 800398ec <sb+0x1c>
    800028c4:	9dbd                	addw	a1,a1,a5
    800028c6:	00000097          	auipc	ra,0x0
    800028ca:	da0080e7          	jalr	-608(ra) # 80002666 <bread>
  bi = b % BPB;
  m = 1 << (bi % 8);
    800028ce:	0074f713          	andi	a4,s1,7
    800028d2:	4785                	li	a5,1
    800028d4:	00e797bb          	sllw	a5,a5,a4
  if ((bp->data[bi / 8] & m) == 0) panic("freeing free block");
    800028d8:	14ce                	slli	s1,s1,0x33
    800028da:	90d9                	srli	s1,s1,0x36
    800028dc:	00950733          	add	a4,a0,s1
    800028e0:	05874703          	lbu	a4,88(a4)
    800028e4:	00e7f6b3          	and	a3,a5,a4
    800028e8:	c69d                	beqz	a3,80002916 <bfree+0x6c>
    800028ea:	892a                	mv	s2,a0
  bp->data[bi / 8] &= ~m;
    800028ec:	94aa                	add	s1,s1,a0
    800028ee:	fff7c793          	not	a5,a5
    800028f2:	8f7d                	and	a4,a4,a5
    800028f4:	04e48c23          	sb	a4,88(s1)
  log_write(bp);
    800028f8:	00001097          	auipc	ra,0x1
    800028fc:	148080e7          	jalr	328(ra) # 80003a40 <log_write>
  brelse(bp);
    80002900:	854a                	mv	a0,s2
    80002902:	00000097          	auipc	ra,0x0
    80002906:	e94080e7          	jalr	-364(ra) # 80002796 <brelse>
}
    8000290a:	60e2                	ld	ra,24(sp)
    8000290c:	6442                	ld	s0,16(sp)
    8000290e:	64a2                	ld	s1,8(sp)
    80002910:	6902                	ld	s2,0(sp)
    80002912:	6105                	addi	sp,sp,32
    80002914:	8082                	ret
  if ((bp->data[bi / 8] & m) == 0) panic("freeing free block");
    80002916:	00006517          	auipc	a0,0x6
    8000291a:	b2250513          	addi	a0,a0,-1246 # 80008438 <etext+0x438>
    8000291e:	00003097          	auipc	ra,0x3
    80002922:	764080e7          	jalr	1892(ra) # 80006082 <panic>

0000000080002926 <balloc>:
static uint balloc(uint dev) {
    80002926:	711d                	addi	sp,sp,-96
    80002928:	ec86                	sd	ra,88(sp)
    8000292a:	e8a2                	sd	s0,80(sp)
    8000292c:	e4a6                	sd	s1,72(sp)
    8000292e:	1080                	addi	s0,sp,96
  for (b = 0; b < sb.size; b += BPB) {
    80002930:	00037797          	auipc	a5,0x37
    80002934:	fa47a783          	lw	a5,-92(a5) # 800398d4 <sb+0x4>
    80002938:	10078f63          	beqz	a5,80002a56 <balloc+0x130>
    8000293c:	e0ca                	sd	s2,64(sp)
    8000293e:	fc4e                	sd	s3,56(sp)
    80002940:	f852                	sd	s4,48(sp)
    80002942:	f456                	sd	s5,40(sp)
    80002944:	f05a                	sd	s6,32(sp)
    80002946:	ec5e                	sd	s7,24(sp)
    80002948:	e862                	sd	s8,16(sp)
    8000294a:	e466                	sd	s9,8(sp)
    8000294c:	8baa                	mv	s7,a0
    8000294e:	4a81                	li	s5,0
    bp = bread(dev, BBLOCK(b, sb));
    80002950:	00037b17          	auipc	s6,0x37
    80002954:	f80b0b13          	addi	s6,s6,-128 # 800398d0 <sb>
    for (bi = 0; bi < BPB && b + bi < sb.size; bi++) {
    80002958:	4c01                	li	s8,0
      m = 1 << (bi % 8);
    8000295a:	4985                	li	s3,1
    for (bi = 0; bi < BPB && b + bi < sb.size; bi++) {
    8000295c:	6a09                	lui	s4,0x2
  for (b = 0; b < sb.size; b += BPB) {
    8000295e:	6c89                	lui	s9,0x2
    80002960:	a061                	j	800029e8 <balloc+0xc2>
        bp->data[bi / 8] |= m;            // Mark block in use.
    80002962:	97ca                	add	a5,a5,s2
    80002964:	8e55                	or	a2,a2,a3
    80002966:	04c78c23          	sb	a2,88(a5)
        log_write(bp);
    8000296a:	854a                	mv	a0,s2
    8000296c:	00001097          	auipc	ra,0x1
    80002970:	0d4080e7          	jalr	212(ra) # 80003a40 <log_write>
        brelse(bp);
    80002974:	854a                	mv	a0,s2
    80002976:	00000097          	auipc	ra,0x0
    8000297a:	e20080e7          	jalr	-480(ra) # 80002796 <brelse>
  bp = bread(dev, bno);
    8000297e:	85a6                	mv	a1,s1
    80002980:	855e                	mv	a0,s7
    80002982:	00000097          	auipc	ra,0x0
    80002986:	ce4080e7          	jalr	-796(ra) # 80002666 <bread>
    8000298a:	892a                	mv	s2,a0
  memset(bp->data, 0, BSIZE);
    8000298c:	40000613          	li	a2,1024
    80002990:	4581                	li	a1,0
    80002992:	05850513          	addi	a0,a0,88
    80002996:	ffffe097          	auipc	ra,0xffffe
    8000299a:	888080e7          	jalr	-1912(ra) # 8000021e <memset>
  log_write(bp);
    8000299e:	854a                	mv	a0,s2
    800029a0:	00001097          	auipc	ra,0x1
    800029a4:	0a0080e7          	jalr	160(ra) # 80003a40 <log_write>
  brelse(bp);
    800029a8:	854a                	mv	a0,s2
    800029aa:	00000097          	auipc	ra,0x0
    800029ae:	dec080e7          	jalr	-532(ra) # 80002796 <brelse>
}
    800029b2:	6906                	ld	s2,64(sp)
    800029b4:	79e2                	ld	s3,56(sp)
    800029b6:	7a42                	ld	s4,48(sp)
    800029b8:	7aa2                	ld	s5,40(sp)
    800029ba:	7b02                	ld	s6,32(sp)
    800029bc:	6be2                	ld	s7,24(sp)
    800029be:	6c42                	ld	s8,16(sp)
    800029c0:	6ca2                	ld	s9,8(sp)
}
    800029c2:	8526                	mv	a0,s1
    800029c4:	60e6                	ld	ra,88(sp)
    800029c6:	6446                	ld	s0,80(sp)
    800029c8:	64a6                	ld	s1,72(sp)
    800029ca:	6125                	addi	sp,sp,96
    800029cc:	8082                	ret
    brelse(bp);
    800029ce:	854a                	mv	a0,s2
    800029d0:	00000097          	auipc	ra,0x0
    800029d4:	dc6080e7          	jalr	-570(ra) # 80002796 <brelse>
  for (b = 0; b < sb.size; b += BPB) {
    800029d8:	015c87bb          	addw	a5,s9,s5
    800029dc:	00078a9b          	sext.w	s5,a5
    800029e0:	004b2703          	lw	a4,4(s6)
    800029e4:	06eaf163          	bgeu	s5,a4,80002a46 <balloc+0x120>
    bp = bread(dev, BBLOCK(b, sb));
    800029e8:	41fad79b          	sraiw	a5,s5,0x1f
    800029ec:	0137d79b          	srliw	a5,a5,0x13
    800029f0:	015787bb          	addw	a5,a5,s5
    800029f4:	40d7d79b          	sraiw	a5,a5,0xd
    800029f8:	01cb2583          	lw	a1,28(s6)
    800029fc:	9dbd                	addw	a1,a1,a5
    800029fe:	855e                	mv	a0,s7
    80002a00:	00000097          	auipc	ra,0x0
    80002a04:	c66080e7          	jalr	-922(ra) # 80002666 <bread>
    80002a08:	892a                	mv	s2,a0
    for (bi = 0; bi < BPB && b + bi < sb.size; bi++) {
    80002a0a:	004b2503          	lw	a0,4(s6)
    80002a0e:	000a849b          	sext.w	s1,s5
    80002a12:	8762                	mv	a4,s8
    80002a14:	faa4fde3          	bgeu	s1,a0,800029ce <balloc+0xa8>
      m = 1 << (bi % 8);
    80002a18:	00777693          	andi	a3,a4,7
    80002a1c:	00d996bb          	sllw	a3,s3,a3
      if ((bp->data[bi / 8] & m) == 0) {  // Is block free?
    80002a20:	41f7579b          	sraiw	a5,a4,0x1f
    80002a24:	01d7d79b          	srliw	a5,a5,0x1d
    80002a28:	9fb9                	addw	a5,a5,a4
    80002a2a:	4037d79b          	sraiw	a5,a5,0x3
    80002a2e:	00f90633          	add	a2,s2,a5
    80002a32:	05864603          	lbu	a2,88(a2)
    80002a36:	00c6f5b3          	and	a1,a3,a2
    80002a3a:	d585                	beqz	a1,80002962 <balloc+0x3c>
    for (bi = 0; bi < BPB && b + bi < sb.size; bi++) {
    80002a3c:	2705                	addiw	a4,a4,1
    80002a3e:	2485                	addiw	s1,s1,1
    80002a40:	fd471ae3          	bne	a4,s4,80002a14 <balloc+0xee>
    80002a44:	b769                	j	800029ce <balloc+0xa8>
    80002a46:	6906                	ld	s2,64(sp)
    80002a48:	79e2                	ld	s3,56(sp)
    80002a4a:	7a42                	ld	s4,48(sp)
    80002a4c:	7aa2                	ld	s5,40(sp)
    80002a4e:	7b02                	ld	s6,32(sp)
    80002a50:	6be2                	ld	s7,24(sp)
    80002a52:	6c42                	ld	s8,16(sp)
    80002a54:	6ca2                	ld	s9,8(sp)
  printf("balloc: out of blocks\n");
    80002a56:	00006517          	auipc	a0,0x6
    80002a5a:	9fa50513          	addi	a0,a0,-1542 # 80008450 <etext+0x450>
    80002a5e:	00003097          	auipc	ra,0x3
    80002a62:	66e080e7          	jalr	1646(ra) # 800060cc <printf>
  return 0;
    80002a66:	4481                	li	s1,0
    80002a68:	bfa9                	j	800029c2 <balloc+0x9c>

0000000080002a6a <bmap>:
// listed in block ip->addrs[NDIRECT].

// Return the disk block address of the nth block in inode ip.
// If there is no such block, bmap allocates one.
// returns 0 if out of disk space.
static uint bmap(struct inode *ip, uint bn) {
    80002a6a:	7179                	addi	sp,sp,-48
    80002a6c:	f406                	sd	ra,40(sp)
    80002a6e:	f022                	sd	s0,32(sp)
    80002a70:	ec26                	sd	s1,24(sp)
    80002a72:	e84a                	sd	s2,16(sp)
    80002a74:	e44e                	sd	s3,8(sp)
    80002a76:	1800                	addi	s0,sp,48
    80002a78:	89aa                	mv	s3,a0
  uint addr, *a;
  struct buf *bp;

  if (bn < NDIRECT) {
    80002a7a:	47ad                	li	a5,11
    80002a7c:	02b7e863          	bltu	a5,a1,80002aac <bmap+0x42>
    if ((addr = ip->addrs[bn]) == 0) {
    80002a80:	02059793          	slli	a5,a1,0x20
    80002a84:	01e7d593          	srli	a1,a5,0x1e
    80002a88:	00b504b3          	add	s1,a0,a1
    80002a8c:	0504a903          	lw	s2,80(s1)
    80002a90:	08091263          	bnez	s2,80002b14 <bmap+0xaa>
      addr = balloc(ip->dev);
    80002a94:	4108                	lw	a0,0(a0)
    80002a96:	00000097          	auipc	ra,0x0
    80002a9a:	e90080e7          	jalr	-368(ra) # 80002926 <balloc>
    80002a9e:	0005091b          	sext.w	s2,a0
      if (addr == 0) return 0;
    80002aa2:	06090963          	beqz	s2,80002b14 <bmap+0xaa>
      ip->addrs[bn] = addr;
    80002aa6:	0524a823          	sw	s2,80(s1)
    80002aaa:	a0ad                	j	80002b14 <bmap+0xaa>
    }
    return addr;
  }
  bn -= NDIRECT;
    80002aac:	ff45849b          	addiw	s1,a1,-12
    80002ab0:	0004871b          	sext.w	a4,s1

  if (bn < NINDIRECT) {
    80002ab4:	0ff00793          	li	a5,255
    80002ab8:	08e7e863          	bltu	a5,a4,80002b48 <bmap+0xde>
    // Load indirect block, allocating if necessary.
    if ((addr = ip->addrs[NDIRECT]) == 0) {
    80002abc:	08052903          	lw	s2,128(a0)
    80002ac0:	00091f63          	bnez	s2,80002ade <bmap+0x74>
      addr = balloc(ip->dev);
    80002ac4:	4108                	lw	a0,0(a0)
    80002ac6:	00000097          	auipc	ra,0x0
    80002aca:	e60080e7          	jalr	-416(ra) # 80002926 <balloc>
    80002ace:	0005091b          	sext.w	s2,a0
      if (addr == 0) return 0;
    80002ad2:	04090163          	beqz	s2,80002b14 <bmap+0xaa>
    80002ad6:	e052                	sd	s4,0(sp)
      ip->addrs[NDIRECT] = addr;
    80002ad8:	0929a023          	sw	s2,128(s3)
    80002adc:	a011                	j	80002ae0 <bmap+0x76>
    80002ade:	e052                	sd	s4,0(sp)
    }
    bp = bread(ip->dev, addr);
    80002ae0:	85ca                	mv	a1,s2
    80002ae2:	0009a503          	lw	a0,0(s3)
    80002ae6:	00000097          	auipc	ra,0x0
    80002aea:	b80080e7          	jalr	-1152(ra) # 80002666 <bread>
    80002aee:	8a2a                	mv	s4,a0
    a = (uint *)bp->data;
    80002af0:	05850793          	addi	a5,a0,88
    if ((addr = a[bn]) == 0) {
